   1               		.file	"chprintf.c"
   2               	__SP_H__ = 0x3e
   3               	__SP_L__ = 0x3d
   4               	__SREG__ = 0x3f
   5               	__tmp_reg__ = 0
   6               	__zero_reg__ = 1
   7               		.text
   8               	.Ltext0:
   9               		.cfi_sections	.debug_frame
  10               		.section	.rodata.chvprintf.str1.1,"aMS",@progbits,1
  11               	.LC0:
  12 0000 286E 756C 		.string	"(null)"
  12      6C29 00
  13               	.global	__ltsf2
  14               	.global	__floatunsisf
  15               	.global	__fixsfsi
  16               	.global	__floatsisf
  17               	.global	__subsf3
  18               	.global	__mulsf3
  19               		.section	.text.chvprintf,"ax",@progbits
  20               	.global	chvprintf
  22               	chvprintf:
  23               	.LVL0:
  24               	.LFB176:
  25               		.file 1 "../../../os/hal/lib/streams/chprintf.c"
   1:../../../os/hal/lib/streams/chprintf.c **** /*
   2:../../../os/hal/lib/streams/chprintf.c ****     ChibiOS - Copyright (C) 2006..2018 Giovanni Di Sirio
   3:../../../os/hal/lib/streams/chprintf.c **** 
   4:../../../os/hal/lib/streams/chprintf.c ****     Licensed under the Apache License, Version 2.0 (the "License");
   5:../../../os/hal/lib/streams/chprintf.c ****     you may not use this file except in compliance with the License.
   6:../../../os/hal/lib/streams/chprintf.c ****     You may obtain a copy of the License at
   7:../../../os/hal/lib/streams/chprintf.c **** 
   8:../../../os/hal/lib/streams/chprintf.c ****         http://www.apache.org/licenses/LICENSE-2.0
   9:../../../os/hal/lib/streams/chprintf.c **** 
  10:../../../os/hal/lib/streams/chprintf.c ****     Unless required by applicable law or agreed to in writing, software
  11:../../../os/hal/lib/streams/chprintf.c ****     distributed under the License is distributed on an "AS IS" BASIS,
  12:../../../os/hal/lib/streams/chprintf.c ****     WITHOUT WARRANTIES OR CONDITIONS OF ANY KIND, either express or implied.
  13:../../../os/hal/lib/streams/chprintf.c ****     See the License for the specific language governing permissions and
  14:../../../os/hal/lib/streams/chprintf.c ****     limitations under the License.
  15:../../../os/hal/lib/streams/chprintf.c **** */
  16:../../../os/hal/lib/streams/chprintf.c **** 
  17:../../../os/hal/lib/streams/chprintf.c **** /*
  18:../../../os/hal/lib/streams/chprintf.c ****    Concepts and parts of this file have been contributed by Fabio Utzig,
  19:../../../os/hal/lib/streams/chprintf.c ****    chvprintf() added by Brent Roman.
  20:../../../os/hal/lib/streams/chprintf.c ****  */
  21:../../../os/hal/lib/streams/chprintf.c **** 
  22:../../../os/hal/lib/streams/chprintf.c **** /**
  23:../../../os/hal/lib/streams/chprintf.c ****  * @file    chprintf.c
  24:../../../os/hal/lib/streams/chprintf.c ****  * @brief   Mini printf-like functionality.
  25:../../../os/hal/lib/streams/chprintf.c ****  *
  26:../../../os/hal/lib/streams/chprintf.c ****  * @addtogroup chprintf
  27:../../../os/hal/lib/streams/chprintf.c ****  * @{
  28:../../../os/hal/lib/streams/chprintf.c ****  */
  29:../../../os/hal/lib/streams/chprintf.c **** 
  30:../../../os/hal/lib/streams/chprintf.c **** #include "hal.h"
  31:../../../os/hal/lib/streams/chprintf.c **** #include "chprintf.h"
  32:../../../os/hal/lib/streams/chprintf.c **** #include "memstreams.h"
  33:../../../os/hal/lib/streams/chprintf.c **** 
  34:../../../os/hal/lib/streams/chprintf.c **** #define MAX_FILLER 11
  35:../../../os/hal/lib/streams/chprintf.c **** #define FLOAT_PRECISION 9
  36:../../../os/hal/lib/streams/chprintf.c **** 
  37:../../../os/hal/lib/streams/chprintf.c **** static char *long_to_string_with_divisor(char *p,
  38:../../../os/hal/lib/streams/chprintf.c ****                                          long num,
  39:../../../os/hal/lib/streams/chprintf.c ****                                          unsigned radix,
  40:../../../os/hal/lib/streams/chprintf.c ****                                          long divisor) {
  41:../../../os/hal/lib/streams/chprintf.c ****   int i;
  42:../../../os/hal/lib/streams/chprintf.c ****   char *q;
  43:../../../os/hal/lib/streams/chprintf.c ****   long l, ll;
  44:../../../os/hal/lib/streams/chprintf.c **** 
  45:../../../os/hal/lib/streams/chprintf.c ****   l = num;
  46:../../../os/hal/lib/streams/chprintf.c ****   if (divisor == 0) {
  47:../../../os/hal/lib/streams/chprintf.c ****     ll = num;
  48:../../../os/hal/lib/streams/chprintf.c ****   } else {
  49:../../../os/hal/lib/streams/chprintf.c ****     ll = divisor;
  50:../../../os/hal/lib/streams/chprintf.c ****   }
  51:../../../os/hal/lib/streams/chprintf.c **** 
  52:../../../os/hal/lib/streams/chprintf.c ****   q = p + MAX_FILLER;
  53:../../../os/hal/lib/streams/chprintf.c ****   do {
  54:../../../os/hal/lib/streams/chprintf.c ****     i = (int)(l % radix);
  55:../../../os/hal/lib/streams/chprintf.c ****     i += '0';
  56:../../../os/hal/lib/streams/chprintf.c ****     if (i > '9')
  57:../../../os/hal/lib/streams/chprintf.c ****       i += 'A' - '0' - 10;
  58:../../../os/hal/lib/streams/chprintf.c ****     *--q = i;
  59:../../../os/hal/lib/streams/chprintf.c ****     l /= radix;
  60:../../../os/hal/lib/streams/chprintf.c ****   } while ((ll /= radix) != 0);
  61:../../../os/hal/lib/streams/chprintf.c **** 
  62:../../../os/hal/lib/streams/chprintf.c ****   i = (int)(p + MAX_FILLER - q);
  63:../../../os/hal/lib/streams/chprintf.c ****   do
  64:../../../os/hal/lib/streams/chprintf.c ****     *p++ = *q++;
  65:../../../os/hal/lib/streams/chprintf.c ****   while (--i);
  66:../../../os/hal/lib/streams/chprintf.c **** 
  67:../../../os/hal/lib/streams/chprintf.c ****   return p;
  68:../../../os/hal/lib/streams/chprintf.c **** }
  69:../../../os/hal/lib/streams/chprintf.c **** 
  70:../../../os/hal/lib/streams/chprintf.c **** static char *ch_ltoa(char *p, long num, unsigned radix) {
  71:../../../os/hal/lib/streams/chprintf.c **** 
  72:../../../os/hal/lib/streams/chprintf.c ****   return long_to_string_with_divisor(p, num, radix, 0);
  73:../../../os/hal/lib/streams/chprintf.c **** }
  74:../../../os/hal/lib/streams/chprintf.c **** 
  75:../../../os/hal/lib/streams/chprintf.c **** #if CHPRINTF_USE_FLOAT
  76:../../../os/hal/lib/streams/chprintf.c **** static const long pow10[FLOAT_PRECISION] = {
  77:../../../os/hal/lib/streams/chprintf.c ****     10, 100, 1000, 10000, 100000, 1000000, 10000000, 100000000, 1000000000
  78:../../../os/hal/lib/streams/chprintf.c **** };
  79:../../../os/hal/lib/streams/chprintf.c **** 
  80:../../../os/hal/lib/streams/chprintf.c **** static char *ftoa(char *p, double num, unsigned long precision) {
  81:../../../os/hal/lib/streams/chprintf.c ****   long l;
  82:../../../os/hal/lib/streams/chprintf.c **** 
  83:../../../os/hal/lib/streams/chprintf.c ****   if ((precision == 0) || (precision > FLOAT_PRECISION))
  84:../../../os/hal/lib/streams/chprintf.c ****     precision = FLOAT_PRECISION;
  85:../../../os/hal/lib/streams/chprintf.c ****   precision = pow10[precision - 1];
  86:../../../os/hal/lib/streams/chprintf.c **** 
  87:../../../os/hal/lib/streams/chprintf.c ****   l = (long)num;
  88:../../../os/hal/lib/streams/chprintf.c ****   p = long_to_string_with_divisor(p, l, 10, 0);
  89:../../../os/hal/lib/streams/chprintf.c ****   *p++ = '.';
  90:../../../os/hal/lib/streams/chprintf.c ****   l = (long)((num - l) * precision);
  91:../../../os/hal/lib/streams/chprintf.c ****   return long_to_string_with_divisor(p, l, 10, precision / 10);
  92:../../../os/hal/lib/streams/chprintf.c **** }
  93:../../../os/hal/lib/streams/chprintf.c **** #endif
  94:../../../os/hal/lib/streams/chprintf.c **** 
  95:../../../os/hal/lib/streams/chprintf.c **** /**
  96:../../../os/hal/lib/streams/chprintf.c ****  * @brief   System formatted output function.
  97:../../../os/hal/lib/streams/chprintf.c ****  * @details This function implements a minimal @p vprintf()-like functionality
  98:../../../os/hal/lib/streams/chprintf.c ****  *          with output on a @p BaseSequentialStream.
  99:../../../os/hal/lib/streams/chprintf.c ****  *          The general parameters format is: %[-][width|*][.precision|*][l|L]p.
 100:../../../os/hal/lib/streams/chprintf.c ****  *          The following parameter types (p) are supported:
 101:../../../os/hal/lib/streams/chprintf.c ****  *          - <b>x</b> hexadecimal integer.
 102:../../../os/hal/lib/streams/chprintf.c ****  *          - <b>X</b> hexadecimal long.
 103:../../../os/hal/lib/streams/chprintf.c ****  *          - <b>o</b> octal integer.
 104:../../../os/hal/lib/streams/chprintf.c ****  *          - <b>O</b> octal long.
 105:../../../os/hal/lib/streams/chprintf.c ****  *          - <b>d</b> decimal signed integer.
 106:../../../os/hal/lib/streams/chprintf.c ****  *          - <b>D</b> decimal signed long.
 107:../../../os/hal/lib/streams/chprintf.c ****  *          - <b>u</b> decimal unsigned integer.
 108:../../../os/hal/lib/streams/chprintf.c ****  *          - <b>U</b> decimal unsigned long.
 109:../../../os/hal/lib/streams/chprintf.c ****  *          - <b>c</b> character.
 110:../../../os/hal/lib/streams/chprintf.c ****  *          - <b>s</b> string.
 111:../../../os/hal/lib/streams/chprintf.c ****  *          .
 112:../../../os/hal/lib/streams/chprintf.c ****  *
 113:../../../os/hal/lib/streams/chprintf.c ****  * @param[in] chp       pointer to a @p BaseSequentialStream implementing object
 114:../../../os/hal/lib/streams/chprintf.c ****  * @param[in] fmt       formatting string
 115:../../../os/hal/lib/streams/chprintf.c ****  * @param[in] ap        list of parameters
 116:../../../os/hal/lib/streams/chprintf.c ****  * @return              The number of bytes that would have been
 117:../../../os/hal/lib/streams/chprintf.c ****  *                      written to @p chp if no stream error occurs
 118:../../../os/hal/lib/streams/chprintf.c ****  *
 119:../../../os/hal/lib/streams/chprintf.c ****  * @api
 120:../../../os/hal/lib/streams/chprintf.c ****  */
 121:../../../os/hal/lib/streams/chprintf.c **** int chvprintf(BaseSequentialStream *chp, const char *fmt, va_list ap) {
  26               		.loc 1 121 71 view -0
  27               		.cfi_startproc
  28               		.loc 1 121 71 is_stmt 0 view .LVU1
  29 0000 2F92      		push r2
  30               	.LCFI0:
  31               		.cfi_def_cfa_offset 3
  32               		.cfi_offset 2, -2
  33 0002 3F92      		push r3
  34               	.LCFI1:
  35               		.cfi_def_cfa_offset 4
  36               		.cfi_offset 3, -3
  37 0004 4F92      		push r4
  38               	.LCFI2:
  39               		.cfi_def_cfa_offset 5
  40               		.cfi_offset 4, -4
  41 0006 5F92      		push r5
  42               	.LCFI3:
  43               		.cfi_def_cfa_offset 6
  44               		.cfi_offset 5, -5
  45 0008 6F92      		push r6
  46               	.LCFI4:
  47               		.cfi_def_cfa_offset 7
  48               		.cfi_offset 6, -6
  49 000a 7F92      		push r7
  50               	.LCFI5:
  51               		.cfi_def_cfa_offset 8
  52               		.cfi_offset 7, -7
  53 000c 8F92      		push r8
  54               	.LCFI6:
  55               		.cfi_def_cfa_offset 9
  56               		.cfi_offset 8, -8
  57 000e 9F92      		push r9
  58               	.LCFI7:
  59               		.cfi_def_cfa_offset 10
  60               		.cfi_offset 9, -9
  61 0010 AF92      		push r10
  62               	.LCFI8:
  63               		.cfi_def_cfa_offset 11
  64               		.cfi_offset 10, -10
  65 0012 BF92      		push r11
  66               	.LCFI9:
  67               		.cfi_def_cfa_offset 12
  68               		.cfi_offset 11, -11
  69 0014 CF92      		push r12
  70               	.LCFI10:
  71               		.cfi_def_cfa_offset 13
  72               		.cfi_offset 12, -12
  73 0016 DF92      		push r13
  74               	.LCFI11:
  75               		.cfi_def_cfa_offset 14
  76               		.cfi_offset 13, -13
  77 0018 EF92      		push r14
  78               	.LCFI12:
  79               		.cfi_def_cfa_offset 15
  80               		.cfi_offset 14, -14
  81 001a FF92      		push r15
  82               	.LCFI13:
  83               		.cfi_def_cfa_offset 16
  84               		.cfi_offset 15, -15
  85 001c 0F93      		push r16
  86               	.LCFI14:
  87               		.cfi_def_cfa_offset 17
  88               		.cfi_offset 16, -16
  89 001e 1F93      		push r17
  90               	.LCFI15:
  91               		.cfi_def_cfa_offset 18
  92               		.cfi_offset 17, -17
  93 0020 CF93      		push r28
  94               	.LCFI16:
  95               		.cfi_def_cfa_offset 19
  96               		.cfi_offset 28, -18
  97 0022 DF93      		push r29
  98               	.LCFI17:
  99               		.cfi_def_cfa_offset 20
 100               		.cfi_offset 29, -19
 101 0024 CDB7      		in r28,__SP_L__
 102 0026 DEB7      		in r29,__SP_H__
 103               	.LCFI18:
 104               		.cfi_def_cfa_register 28
 105 0028 E597      		sbiw r28,53
 106               	.LCFI19:
 107               		.cfi_def_cfa_offset 73
 108 002a 0FB6      		in __tmp_reg__,__SREG__
 109 002c F894      		cli
 110 002e DEBF      		out __SP_H__,r29
 111 0030 0FBE      		out __SREG__,__tmp_reg__
 112 0032 CDBF      		out __SP_L__,r28
 113               	/* prologue: function */
 114               	/* frame size = 53 */
 115               	/* stack size = 71 */
 116               	.L__stack_usage = 71
 117 0034 7C01      		movw r14,r24
 118 0036 3B01      		movw r6,r22
 119 0038 2A01      		movw r4,r20
 122:../../../os/hal/lib/streams/chprintf.c ****   char *p, *s, c, filler;
 120               		.loc 1 122 3 is_stmt 1 view .LVU2
 123:../../../os/hal/lib/streams/chprintf.c ****   int i, precision, width;
 121               		.loc 1 123 3 view .LVU3
 124:../../../os/hal/lib/streams/chprintf.c ****   int n = 0;
 122               		.loc 1 124 3 view .LVU4
 123               	.LVL1:
 124               		.loc 1 124 7 is_stmt 0 view .LVU5
 125 003a 312C      		mov r3,__zero_reg__
 126 003c 212C      		mov r2,__zero_reg__
 125:../../../os/hal/lib/streams/chprintf.c ****   bool is_long, left_align;
 126:../../../os/hal/lib/streams/chprintf.c ****   long l;
 127:../../../os/hal/lib/streams/chprintf.c **** #if CHPRINTF_USE_FLOAT
 128:../../../os/hal/lib/streams/chprintf.c ****   float f;
 129:../../../os/hal/lib/streams/chprintf.c ****   char tmpbuf[2*MAX_FILLER + 1];
 130:../../../os/hal/lib/streams/chprintf.c **** #else
 131:../../../os/hal/lib/streams/chprintf.c ****   char tmpbuf[MAX_FILLER + 1];
 132:../../../os/hal/lib/streams/chprintf.c **** #endif
 133:../../../os/hal/lib/streams/chprintf.c **** 
 134:../../../os/hal/lib/streams/chprintf.c ****   while (true) {
 135:../../../os/hal/lib/streams/chprintf.c ****     c = *fmt++;
 136:../../../os/hal/lib/streams/chprintf.c ****     if (c == 0)
 137:../../../os/hal/lib/streams/chprintf.c ****       return n;
 138:../../../os/hal/lib/streams/chprintf.c ****     if (c != '%') {
 139:../../../os/hal/lib/streams/chprintf.c ****       streamPut(chp, (uint8_t)c);
 140:../../../os/hal/lib/streams/chprintf.c ****       n++;
 141:../../../os/hal/lib/streams/chprintf.c ****       continue;
 142:../../../os/hal/lib/streams/chprintf.c ****     }
 143:../../../os/hal/lib/streams/chprintf.c ****     p = tmpbuf;
 144:../../../os/hal/lib/streams/chprintf.c ****     s = tmpbuf;
 145:../../../os/hal/lib/streams/chprintf.c ****     left_align = FALSE;
 146:../../../os/hal/lib/streams/chprintf.c ****     if (*fmt == '-') {
 147:../../../os/hal/lib/streams/chprintf.c ****       fmt++;
 148:../../../os/hal/lib/streams/chprintf.c ****       left_align = TRUE;
 149:../../../os/hal/lib/streams/chprintf.c ****     }
 150:../../../os/hal/lib/streams/chprintf.c ****     filler = ' ';
 151:../../../os/hal/lib/streams/chprintf.c ****     if (*fmt == '0') {
 152:../../../os/hal/lib/streams/chprintf.c ****       fmt++;
 153:../../../os/hal/lib/streams/chprintf.c ****       filler = '0';
 154:../../../os/hal/lib/streams/chprintf.c ****     }
 155:../../../os/hal/lib/streams/chprintf.c ****     width = 0;
 156:../../../os/hal/lib/streams/chprintf.c ****     while (TRUE) {
 157:../../../os/hal/lib/streams/chprintf.c ****       c = *fmt++;
 158:../../../os/hal/lib/streams/chprintf.c ****       if (c >= '0' && c <= '9')
 159:../../../os/hal/lib/streams/chprintf.c ****         c -= '0';
 160:../../../os/hal/lib/streams/chprintf.c ****       else if (c == '*')
 161:../../../os/hal/lib/streams/chprintf.c ****         c = va_arg(ap, int);
 162:../../../os/hal/lib/streams/chprintf.c ****       else
 163:../../../os/hal/lib/streams/chprintf.c ****         break;
 164:../../../os/hal/lib/streams/chprintf.c ****       width = width * 10 + c;
 165:../../../os/hal/lib/streams/chprintf.c ****     }
 166:../../../os/hal/lib/streams/chprintf.c ****     precision = 0;
 167:../../../os/hal/lib/streams/chprintf.c ****     if (c == '.') {
 168:../../../os/hal/lib/streams/chprintf.c ****       while (TRUE) {
 169:../../../os/hal/lib/streams/chprintf.c ****         c = *fmt++;
 170:../../../os/hal/lib/streams/chprintf.c ****         if (c >= '0' && c <= '9')
 171:../../../os/hal/lib/streams/chprintf.c ****           c -= '0';
 172:../../../os/hal/lib/streams/chprintf.c ****         else if (c == '*')
 173:../../../os/hal/lib/streams/chprintf.c ****           c = va_arg(ap, int);
 174:../../../os/hal/lib/streams/chprintf.c ****         else
 175:../../../os/hal/lib/streams/chprintf.c ****           break;
 176:../../../os/hal/lib/streams/chprintf.c ****         precision *= 10;
 177:../../../os/hal/lib/streams/chprintf.c ****         precision += c;
 178:../../../os/hal/lib/streams/chprintf.c ****       }
 179:../../../os/hal/lib/streams/chprintf.c ****     }
 180:../../../os/hal/lib/streams/chprintf.c ****     /* Long modifier.*/
 181:../../../os/hal/lib/streams/chprintf.c ****     if (c == 'l' || c == 'L') {
 182:../../../os/hal/lib/streams/chprintf.c ****       is_long = TRUE;
 183:../../../os/hal/lib/streams/chprintf.c ****       if (*fmt)
 184:../../../os/hal/lib/streams/chprintf.c ****         c = *fmt++;
 185:../../../os/hal/lib/streams/chprintf.c ****     }
 186:../../../os/hal/lib/streams/chprintf.c ****     else
 187:../../../os/hal/lib/streams/chprintf.c ****       is_long = (c >= 'A') && (c <= 'Z');
 188:../../../os/hal/lib/streams/chprintf.c **** 
 189:../../../os/hal/lib/streams/chprintf.c ****     /* Command decoding.*/
 190:../../../os/hal/lib/streams/chprintf.c ****     switch (c) {
 191:../../../os/hal/lib/streams/chprintf.c ****     case 'c':
 192:../../../os/hal/lib/streams/chprintf.c ****       filler = ' ';
 193:../../../os/hal/lib/streams/chprintf.c ****       *p++ = va_arg(ap, int);
 194:../../../os/hal/lib/streams/chprintf.c ****       break;
 195:../../../os/hal/lib/streams/chprintf.c ****     case 's':
 196:../../../os/hal/lib/streams/chprintf.c ****       filler = ' ';
 197:../../../os/hal/lib/streams/chprintf.c ****       if ((s = va_arg(ap, char *)) == 0)
 198:../../../os/hal/lib/streams/chprintf.c ****         s = "(null)";
 199:../../../os/hal/lib/streams/chprintf.c ****       if (precision == 0)
 200:../../../os/hal/lib/streams/chprintf.c ****         precision = 32767;
 201:../../../os/hal/lib/streams/chprintf.c ****       for (p = s; *p && (--precision >= 0); p++)
 202:../../../os/hal/lib/streams/chprintf.c ****         ;
 203:../../../os/hal/lib/streams/chprintf.c ****       break;
 204:../../../os/hal/lib/streams/chprintf.c ****     case 'D':
 205:../../../os/hal/lib/streams/chprintf.c ****     case 'd':
 206:../../../os/hal/lib/streams/chprintf.c ****     case 'I':
 207:../../../os/hal/lib/streams/chprintf.c ****     case 'i':
 208:../../../os/hal/lib/streams/chprintf.c ****       if (is_long)
 209:../../../os/hal/lib/streams/chprintf.c ****         l = va_arg(ap, long);
 210:../../../os/hal/lib/streams/chprintf.c ****       else
 211:../../../os/hal/lib/streams/chprintf.c ****         l = va_arg(ap, int);
 212:../../../os/hal/lib/streams/chprintf.c ****       if (l < 0) {
 213:../../../os/hal/lib/streams/chprintf.c ****         *p++ = '-';
 214:../../../os/hal/lib/streams/chprintf.c ****         l = -l;
 215:../../../os/hal/lib/streams/chprintf.c ****       }
 216:../../../os/hal/lib/streams/chprintf.c ****       p = ch_ltoa(p, l, 10);
 217:../../../os/hal/lib/streams/chprintf.c ****       break;
 218:../../../os/hal/lib/streams/chprintf.c **** #if CHPRINTF_USE_FLOAT
 219:../../../os/hal/lib/streams/chprintf.c ****     case 'f':
 220:../../../os/hal/lib/streams/chprintf.c ****       f = (float) va_arg(ap, double);
 221:../../../os/hal/lib/streams/chprintf.c ****       if (f < 0) {
 222:../../../os/hal/lib/streams/chprintf.c ****         *p++ = '-';
 223:../../../os/hal/lib/streams/chprintf.c ****         f = -f;
 224:../../../os/hal/lib/streams/chprintf.c ****       }
 225:../../../os/hal/lib/streams/chprintf.c ****       p = ftoa(p, f, precision);
 226:../../../os/hal/lib/streams/chprintf.c ****       break;
 227:../../../os/hal/lib/streams/chprintf.c **** #endif
 228:../../../os/hal/lib/streams/chprintf.c ****     case 'X':
 229:../../../os/hal/lib/streams/chprintf.c ****     case 'x':
 230:../../../os/hal/lib/streams/chprintf.c ****       c = 16;
 231:../../../os/hal/lib/streams/chprintf.c ****       goto unsigned_common;
 232:../../../os/hal/lib/streams/chprintf.c ****     case 'U':
 233:../../../os/hal/lib/streams/chprintf.c ****     case 'u':
 234:../../../os/hal/lib/streams/chprintf.c ****       c = 10;
 235:../../../os/hal/lib/streams/chprintf.c ****       goto unsigned_common;
 236:../../../os/hal/lib/streams/chprintf.c ****     case 'O':
 237:../../../os/hal/lib/streams/chprintf.c ****     case 'o':
 238:../../../os/hal/lib/streams/chprintf.c ****       c = 8;
 239:../../../os/hal/lib/streams/chprintf.c **** unsigned_common:
 240:../../../os/hal/lib/streams/chprintf.c ****       if (is_long)
 241:../../../os/hal/lib/streams/chprintf.c ****         l = va_arg(ap, unsigned long);
 242:../../../os/hal/lib/streams/chprintf.c ****       else
 243:../../../os/hal/lib/streams/chprintf.c ****         l = va_arg(ap, unsigned int);
 127               		.loc 1 243 13 view .LVU6
 128 003e 9E01      		movw r18,r28
 129 0040 245F      		subi r18,-12
 130 0042 3F4F      		sbci r19,-1
 131 0044 398F      		std Y+25,r19
 132 0046 288F      		std Y+24,r18
 133 0048 AE01      		movw r20,r28
 134               	.LVL2:
 135               		.loc 1 243 13 view .LVU7
 136 004a 4F5F      		subi r20,-1
 137 004c 5F4F      		sbci r21,-1
 138 004e 5B8F      		std Y+27,r21
 139 0050 4A8F      		std Y+26,r20
 140               	.LVL3:
 141               	.L2:
 125:../../../os/hal/lib/streams/chprintf.c ****   bool is_long, left_align;
 142               		.loc 1 125 3 is_stmt 1 view .LVU8
 126:../../../os/hal/lib/streams/chprintf.c **** #if CHPRINTF_USE_FLOAT
 143               		.loc 1 126 3 view .LVU9
 128:../../../os/hal/lib/streams/chprintf.c ****   char tmpbuf[2*MAX_FILLER + 1];
 144               		.loc 1 128 3 view .LVU10
 129:../../../os/hal/lib/streams/chprintf.c **** #else
 145               		.loc 1 129 3 view .LVU11
 134:../../../os/hal/lib/streams/chprintf.c ****     c = *fmt++;
 146               		.loc 1 134 3 view .LVU12
 135:../../../os/hal/lib/streams/chprintf.c ****     if (c == 0)
 147               		.loc 1 135 5 view .LVU13
 135:../../../os/hal/lib/streams/chprintf.c ****     if (c == 0)
 148               		.loc 1 135 7 is_stmt 0 view .LVU14
 149 0052 D301      		movw r26,r6
 150 0054 6D91      		ld r22,X+
 151 0056 8D01      		movw r16,r26
 152               	.LVL4:
 136:../../../os/hal/lib/streams/chprintf.c ****       return n;
 153               		.loc 1 136 5 is_stmt 1 view .LVU15
 136:../../../os/hal/lib/streams/chprintf.c ****       return n;
 154               		.loc 1 136 8 is_stmt 0 view .LVU16
 155 0058 6623      		tst r22
 156 005a 01F0      		breq .L102
 157               	.L111:
 138:../../../os/hal/lib/streams/chprintf.c ****       streamPut(chp, (uint8_t)c);
 158               		.loc 1 138 5 is_stmt 1 view .LVU17
 138:../../../os/hal/lib/streams/chprintf.c ****       streamPut(chp, (uint8_t)c);
 159               		.loc 1 138 8 is_stmt 0 view .LVU18
 160 005c 6532      		cpi r22,lo8(37)
 161 005e 01F0      		breq .L4
 139:../../../os/hal/lib/streams/chprintf.c ****       n++;
 162               		.loc 1 139 7 is_stmt 1 view .LVU19
 163 0060 D701      		movw r26,r14
 164 0062 ED91      		ld r30,X+
 165 0064 FC91      		ld r31,X
 166 0066 0680      		ldd __tmp_reg__,Z+6
 167 0068 F781      		ldd r31,Z+7
 168 006a E02D      		mov r30,__tmp_reg__
 169 006c C701      		movw r24,r14
 170 006e 0995      		icall
 171               	.LVL5:
 140:../../../os/hal/lib/streams/chprintf.c ****       continue;
 172               		.loc 1 140 7 view .LVU20
 140:../../../os/hal/lib/streams/chprintf.c ****       continue;
 173               		.loc 1 140 8 is_stmt 0 view .LVU21
 174 0070 BFEF      		ldi r27,-1
 175 0072 2B1A      		sub r2,r27
 176 0074 3B0A      		sbc r3,r27
 177               	.LVL6:
 141:../../../os/hal/lib/streams/chprintf.c ****     }
 178               		.loc 1 141 7 is_stmt 1 view .LVU22
 135:../../../os/hal/lib/streams/chprintf.c ****     if (c == 0)
 179               		.loc 1 135 13 is_stmt 0 view .LVU23
 180 0076 3801      		movw r6,r16
 181               	.LVL7:
 125:../../../os/hal/lib/streams/chprintf.c ****   long l;
 182               		.loc 1 125 3 is_stmt 1 view .LVU24
 126:../../../os/hal/lib/streams/chprintf.c **** #if CHPRINTF_USE_FLOAT
 183               		.loc 1 126 3 view .LVU25
 128:../../../os/hal/lib/streams/chprintf.c ****   char tmpbuf[2*MAX_FILLER + 1];
 184               		.loc 1 128 3 view .LVU26
 129:../../../os/hal/lib/streams/chprintf.c **** #else
 185               		.loc 1 129 3 view .LVU27
 134:../../../os/hal/lib/streams/chprintf.c ****     c = *fmt++;
 186               		.loc 1 134 3 view .LVU28
 135:../../../os/hal/lib/streams/chprintf.c ****     if (c == 0)
 187               		.loc 1 135 5 view .LVU29
 135:../../../os/hal/lib/streams/chprintf.c ****     if (c == 0)
 188               		.loc 1 135 7 is_stmt 0 view .LVU30
 189 0078 D301      		movw r26,r6
 190 007a 6D91      		ld r22,X+
 191 007c 8D01      		movw r16,r26
 192               	.LVL8:
 136:../../../os/hal/lib/streams/chprintf.c ****       return n;
 193               		.loc 1 136 5 is_stmt 1 view .LVU31
 136:../../../os/hal/lib/streams/chprintf.c ****       return n;
 194               		.loc 1 136 8 is_stmt 0 view .LVU32
 195 007e 6111      		cpse r22,__zero_reg__
 196 0080 00C0      		rjmp .L111
 197               	.L102:
 244:../../../os/hal/lib/streams/chprintf.c ****       p = ch_ltoa(p, l, c);
 245:../../../os/hal/lib/streams/chprintf.c ****       break;
 246:../../../os/hal/lib/streams/chprintf.c ****     default:
 247:../../../os/hal/lib/streams/chprintf.c ****       *p++ = c;
 248:../../../os/hal/lib/streams/chprintf.c ****       break;
 249:../../../os/hal/lib/streams/chprintf.c ****     }
 250:../../../os/hal/lib/streams/chprintf.c ****     i = (int)(p - s);
 251:../../../os/hal/lib/streams/chprintf.c ****     if ((width -= i) < 0)
 252:../../../os/hal/lib/streams/chprintf.c ****       width = 0;
 253:../../../os/hal/lib/streams/chprintf.c ****     if (left_align == FALSE)
 254:../../../os/hal/lib/streams/chprintf.c ****       width = -width;
 255:../../../os/hal/lib/streams/chprintf.c ****     if (width < 0) {
 256:../../../os/hal/lib/streams/chprintf.c ****       if (*s == '-' && filler == '0') {
 257:../../../os/hal/lib/streams/chprintf.c ****         streamPut(chp, (uint8_t)*s++);
 258:../../../os/hal/lib/streams/chprintf.c ****         n++;
 259:../../../os/hal/lib/streams/chprintf.c ****         i--;
 260:../../../os/hal/lib/streams/chprintf.c ****       }
 261:../../../os/hal/lib/streams/chprintf.c ****       do {
 262:../../../os/hal/lib/streams/chprintf.c ****         streamPut(chp, (uint8_t)filler);
 263:../../../os/hal/lib/streams/chprintf.c ****         n++;
 264:../../../os/hal/lib/streams/chprintf.c ****       } while (++width != 0);
 265:../../../os/hal/lib/streams/chprintf.c ****     }
 266:../../../os/hal/lib/streams/chprintf.c ****     while (--i >= 0) {
 267:../../../os/hal/lib/streams/chprintf.c ****       streamPut(chp, (uint8_t)*s++);
 268:../../../os/hal/lib/streams/chprintf.c ****       n++;
 269:../../../os/hal/lib/streams/chprintf.c ****     }
 270:../../../os/hal/lib/streams/chprintf.c **** 
 271:../../../os/hal/lib/streams/chprintf.c ****     while (width) {
 272:../../../os/hal/lib/streams/chprintf.c ****       streamPut(chp, (uint8_t)filler);
 273:../../../os/hal/lib/streams/chprintf.c ****       n++;
 274:../../../os/hal/lib/streams/chprintf.c ****       width--;
 275:../../../os/hal/lib/streams/chprintf.c ****     }
 276:../../../os/hal/lib/streams/chprintf.c ****   }
 277:../../../os/hal/lib/streams/chprintf.c **** }
 198               		.loc 1 277 1 view .LVU33
 199 0082 C101      		movw r24,r2
 200               	/* epilogue start */
 201 0084 E596      		adiw r28,53
 202 0086 0FB6      		in __tmp_reg__,__SREG__
 203 0088 F894      		cli
 204 008a DEBF      		out __SP_H__,r29
 205 008c 0FBE      		out __SREG__,__tmp_reg__
 206 008e CDBF      		out __SP_L__,r28
 207 0090 DF91      		pop r29
 208 0092 CF91      		pop r28
 209 0094 1F91      		pop r17
 210 0096 0F91      		pop r16
 211 0098 FF90      		pop r15
 212 009a EF90      		pop r14
 213 009c DF90      		pop r13
 214 009e CF90      		pop r12
 215 00a0 BF90      		pop r11
 216 00a2 AF90      		pop r10
 217 00a4 9F90      		pop r9
 218 00a6 8F90      		pop r8
 219 00a8 7F90      		pop r7
 220 00aa 6F90      		pop r6
 221               	.LVL9:
 222               		.loc 1 277 1 view .LVU34
 223 00ac 5F90      		pop r5
 224 00ae 4F90      		pop r4
 225               	.LVL10:
 226               		.loc 1 277 1 view .LVU35
 227 00b0 3F90      		pop r3
 228 00b2 2F90      		pop r2
 229               	.LVL11:
 230               		.loc 1 277 1 view .LVU36
 231 00b4 0895      		ret
 232               	.LVL12:
 233               	.L4:
 143:../../../os/hal/lib/streams/chprintf.c ****     s = tmpbuf;
 234               		.loc 1 143 5 is_stmt 1 view .LVU37
 144:../../../os/hal/lib/streams/chprintf.c ****     left_align = FALSE;
 235               		.loc 1 144 5 view .LVU38
 145:../../../os/hal/lib/streams/chprintf.c ****     if (*fmt == '-') {
 236               		.loc 1 145 5 view .LVU39
 146:../../../os/hal/lib/streams/chprintf.c ****       fmt++;
 237               		.loc 1 146 5 view .LVU40
 146:../../../os/hal/lib/streams/chprintf.c ****       fmt++;
 238               		.loc 1 146 9 is_stmt 0 view .LVU41
 239 00b6 F301      		movw r30,r6
 240 00b8 8181      		ldd r24,Z+1
 146:../../../os/hal/lib/streams/chprintf.c ****       fmt++;
 241               		.loc 1 146 8 view .LVU42
 242 00ba 8D32      		cpi r24,lo8(45)
 243 00bc 01F4      		brne .+2
 244 00be 00C0      		rjmp .L112
 145:../../../os/hal/lib/streams/chprintf.c ****     if (*fmt == '-') {
 245               		.loc 1 145 16 view .LVU43
 246 00c0 19A2      		std Y+33,__zero_reg__
 247               	.LVL13:
 248               	.L6:
 150:../../../os/hal/lib/streams/chprintf.c ****     if (*fmt == '0') {
 249               		.loc 1 150 5 is_stmt 1 view .LVU44
 151:../../../os/hal/lib/streams/chprintf.c ****       fmt++;
 250               		.loc 1 151 5 view .LVU45
 151:../../../os/hal/lib/streams/chprintf.c ****       fmt++;
 251               		.loc 1 151 8 is_stmt 0 view .LVU46
 252 00c2 8033      		cpi r24,lo8(48)
 253 00c4 01F4      		brne .+2
 254 00c6 00C0      		rjmp .L113
 150:../../../os/hal/lib/streams/chprintf.c ****     if (*fmt == '0') {
 255               		.loc 1 150 12 view .LVU47
 256 00c8 E0E2      		ldi r30,lo8(32)
 257 00ca E8A3      		std Y+32,r30
 258               	.LVL14:
 259               	.L7:
 155:../../../os/hal/lib/streams/chprintf.c ****     while (TRUE) {
 260               		.loc 1 155 5 is_stmt 1 view .LVU48
 155:../../../os/hal/lib/streams/chprintf.c ****     while (TRUE) {
 261               		.loc 1 155 5 is_stmt 0 view .LVU49
 262 00cc F801      		movw r30,r16
 263 00ce 3196      		adiw r30,1
 155:../../../os/hal/lib/streams/chprintf.c ****     while (TRUE) {
 264               		.loc 1 155 11 view .LVU50
 265 00d0 D12C      		mov r13,__zero_reg__
 266 00d2 C12C      		mov r12,__zero_reg__
 267 00d4 00C0      		rjmp .L10
 268               	.LVL15:
 269               	.L114:
 161:../../../os/hal/lib/streams/chprintf.c ****       else
 270               		.loc 1 161 9 is_stmt 1 view .LVU51
 161:../../../os/hal/lib/streams/chprintf.c ****       else
 271               		.loc 1 161 11 is_stmt 0 view .LVU52
 272 00d6 D201      		movw r26,r4
 273 00d8 2C91      		ld r18,X
 274               	.LVL16:
 161:../../../os/hal/lib/streams/chprintf.c ****       else
 275               		.loc 1 161 13 view .LVU53
 276 00da A201      		movw r20,r4
 277 00dc 4E5F      		subi r20,-2
 278 00de 5F4F      		sbci r21,-1
 279               	.LVL17:
 161:../../../os/hal/lib/streams/chprintf.c ****       else
 280               		.loc 1 161 13 view .LVU54
 281 00e0 2A01      		movw r4,r20
 282               	.LVL18:
 283               	.L8:
 164:../../../os/hal/lib/streams/chprintf.c ****     }
 284               		.loc 1 164 7 is_stmt 1 view .LVU55
 164:../../../os/hal/lib/streams/chprintf.c ****     }
 285               		.loc 1 164 21 is_stmt 0 view .LVU56
 286 00e2 C601      		movw r24,r12
 287 00e4 880F      		lsl r24
 288 00e6 991F      		rol r25
 289 00e8 880F      		lsl r24
 290 00ea 991F      		rol r25
 291 00ec C80E      		add r12,r24
 292 00ee D91E      		adc r13,r25
 293               	.LVL19:
 164:../../../os/hal/lib/streams/chprintf.c ****     }
 294               		.loc 1 164 21 view .LVU57
 295 00f0 CC0C      		lsl r12
 296 00f2 DD1C      		rol r13
 164:../../../os/hal/lib/streams/chprintf.c ****     }
 297               		.loc 1 164 13 view .LVU58
 298 00f4 C20E      		add r12,r18
 299 00f6 D11C      		adc r13,__zero_reg__
 300               	.LVL20:
 164:../../../os/hal/lib/streams/chprintf.c ****     }
 301               		.loc 1 164 13 view .LVU59
 302 00f8 8191      		ld r24,Z+
 303               	.LVL21:
 304               	.L10:
 156:../../../os/hal/lib/streams/chprintf.c ****       c = *fmt++;
 305               		.loc 1 156 5 is_stmt 1 view .LVU60
 157:../../../os/hal/lib/streams/chprintf.c ****       if (c >= '0' && c <= '9')
 306               		.loc 1 157 7 view .LVU61
 157:../../../os/hal/lib/streams/chprintf.c ****       if (c >= '0' && c <= '9')
 307               		.loc 1 157 15 is_stmt 0 view .LVU62
 308 00fa 3F01      		movw r6,r30
 309               	.LVL22:
 158:../../../os/hal/lib/streams/chprintf.c ****         c -= '0';
 310               		.loc 1 158 7 is_stmt 1 view .LVU63
 158:../../../os/hal/lib/streams/chprintf.c ****         c -= '0';
 311               		.loc 1 158 20 is_stmt 0 view .LVU64
 312 00fc 20ED      		ldi r18,lo8(-48)
 313 00fe 280F      		add r18,r24
 158:../../../os/hal/lib/streams/chprintf.c ****         c -= '0';
 314               		.loc 1 158 10 view .LVU65
 315 0100 2A30      		cpi r18,lo8(10)
 316 0102 00F0      		brlo .L8
 160:../../../os/hal/lib/streams/chprintf.c ****         c = va_arg(ap, int);
 317               		.loc 1 160 12 is_stmt 1 view .LVU66
 160:../../../os/hal/lib/streams/chprintf.c ****         c = va_arg(ap, int);
 318               		.loc 1 160 15 is_stmt 0 view .LVU67
 319 0104 8A32      		cpi r24,lo8(42)
 320 0106 01F0      		breq .L114
 166:../../../os/hal/lib/streams/chprintf.c ****     if (c == '.') {
 321               		.loc 1 166 5 is_stmt 1 view .LVU68
 322               	.LVL23:
 167:../../../os/hal/lib/streams/chprintf.c ****       while (TRUE) {
 323               		.loc 1 167 5 view .LVU69
 166:../../../os/hal/lib/streams/chprintf.c ****     if (c == '.') {
 324               		.loc 1 166 15 is_stmt 0 view .LVU70
 325 0108 10E0      		ldi r17,0
 326 010a 00E0      		ldi r16,0
 167:../../../os/hal/lib/streams/chprintf.c ****       while (TRUE) {
 327               		.loc 1 167 8 view .LVU71
 328 010c 8E32      		cpi r24,lo8(46)
 329 010e 01F4      		brne .+2
 330 0110 00C0      		rjmp .L13
 331               	.LVL24:
 181:../../../os/hal/lib/streams/chprintf.c ****       is_long = TRUE;
 332               		.loc 1 181 5 is_stmt 1 view .LVU72
 181:../../../os/hal/lib/streams/chprintf.c ****       is_long = TRUE;
 333               		.loc 1 181 18 is_stmt 0 view .LVU73
 334 0112 982F      		mov r25,r24
 335 0114 9F7D      		andi r25,lo8(-33)
 336 0116 9C34      		cpi r25,lo8(76)
 337 0118 01F4      		brne .+2
 338 011a 00C0      		rjmp .L115
 339               	.LVL25:
 340               	.L103:
 187:../../../os/hal/lib/streams/chprintf.c **** 
 341               		.loc 1 187 7 is_stmt 1 view .LVU74
 187:../../../os/hal/lib/streams/chprintf.c **** 
 342               		.loc 1 187 28 is_stmt 0 view .LVU75
 343 011c 9FEB      		ldi r25,lo8(-65)
 344 011e 980F      		add r25,r24
 345               	.LVL26:
 190:../../../os/hal/lib/streams/chprintf.c ****     case 'c':
 346               		.loc 1 190 5 is_stmt 1 view .LVU76
 347 0120 ECEB      		ldi r30,lo8(-68)
 348 0122 E80F      		add r30,r24
 349 0124 E533      		cpi r30,lo8(53)
 350 0126 00F4      		brsh .+2
 351 0128 00C0      		rjmp .L116
 352               	.LVL27:
 353               	.L16:
 247:../../../os/hal/lib/streams/chprintf.c ****       break;
 354               		.loc 1 247 7 view .LVU77
 247:../../../os/hal/lib/streams/chprintf.c ****       break;
 355               		.loc 1 247 12 is_stmt 0 view .LVU78
 356 012a 8983      		std Y+1,r24
 248:../../../os/hal/lib/streams/chprintf.c ****     }
 357               		.loc 1 248 7 is_stmt 1 view .LVU79
 358 012c 912C      		mov r9,__zero_reg__
 359 012e 812C      		mov r8,__zero_reg__
 360 0130 61E0      		ldi r22,lo8(1)
 361 0132 70E0      		ldi r23,0
 144:../../../os/hal/lib/streams/chprintf.c ****     left_align = FALSE;
 362               		.loc 1 144 7 is_stmt 0 view .LVU80
 363 0134 AE01      		movw r20,r28
 364 0136 4F5F      		subi r20,-1
 365 0138 5F4F      		sbci r21,-1
 366 013a 5A01      		movw r10,r20
 367               	.LVL28:
 368               	.L30:
 250:../../../os/hal/lib/streams/chprintf.c ****     if ((width -= i) < 0)
 369               		.loc 1 250 5 is_stmt 1 view .LVU81
 251:../../../os/hal/lib/streams/chprintf.c ****       width = 0;
 370               		.loc 1 251 5 view .LVU82
 251:../../../os/hal/lib/streams/chprintf.c ****       width = 0;
 371               		.loc 1 251 16 is_stmt 0 view .LVU83
 372 013c 8601      		movw r16,r12
 373 013e 061B      		sub r16,r22
 374 0140 170B      		sbc r17,r23
 375               	.LVL29:
 251:../../../os/hal/lib/streams/chprintf.c ****       width = 0;
 376               		.loc 1 251 8 view .LVU84
 377 0142 17FD      		sbrc r17,7
 378 0144 00C0      		rjmp .L117
 379               	.L58:
 253:../../../os/hal/lib/streams/chprintf.c ****       width = -width;
 380               		.loc 1 253 5 is_stmt 1 view .LVU85
 253:../../../os/hal/lib/streams/chprintf.c ****       width = -width;
 381               		.loc 1 253 8 is_stmt 0 view .LVU86
 382 0146 89A1      		ldd r24,Y+33
 383 0148 8111      		cpse r24,__zero_reg__
 384 014a 00C0      		rjmp .L61
 254:../../../os/hal/lib/streams/chprintf.c ****     if (width < 0) {
 385               		.loc 1 254 7 is_stmt 1 view .LVU87
 254:../../../os/hal/lib/streams/chprintf.c ****     if (width < 0) {
 386               		.loc 1 254 13 is_stmt 0 view .LVU88
 387 014c DB01      		movw r26,r22
 388 014e AC19      		sub r26,r12
 389 0150 BD09      		sbc r27,r13
 390 0152 BD8F      		std Y+29,r27
 391 0154 AC8F      		std Y+28,r26
 392               	.LVL30:
 255:../../../os/hal/lib/streams/chprintf.c ****       if (*s == '-' && filler == '0') {
 393               		.loc 1 255 5 is_stmt 1 view .LVU89
 255:../../../os/hal/lib/streams/chprintf.c ****       if (*s == '-' && filler == '0') {
 394               		.loc 1 255 8 is_stmt 0 view .LVU90
 395 0156 012B      		or r16,r17
 396 0158 01F4      		brne .+2
 397 015a 00C0      		rjmp .L118
 398               	.LVL31:
 399               	.L74:
 256:../../../os/hal/lib/streams/chprintf.c ****         streamPut(chp, (uint8_t)*s++);
 400               		.loc 1 256 7 is_stmt 1 view .LVU91
 401 015c D701      		movw r26,r14
 402 015e ED91      		ld r30,X+
 403 0160 FC91      		ld r31,X
 404 0162 0680      		ldd __tmp_reg__,Z+6
 405 0164 F781      		ldd r31,Z+7
 406 0166 E02D      		mov r30,__tmp_reg__
 256:../../../os/hal/lib/streams/chprintf.c ****         streamPut(chp, (uint8_t)*s++);
 407               		.loc 1 256 10 is_stmt 0 view .LVU92
 408 0168 D501      		movw r26,r10
 409 016a 8C91      		ld r24,X
 410 016c 8D32      		cpi r24,lo8(45)
 411 016e 01F4      		brne .+2
 412 0170 00C0      		rjmp .L119
 413               	.L62:
 255:../../../os/hal/lib/streams/chprintf.c ****       if (*s == '-' && filler == '0') {
 414               		.loc 1 255 8 discriminator 1 view .LVU93
 415 0172 0C8D      		ldd r16,Y+28
 416 0174 1D8D      		ldd r17,Y+29
 417 0176 D8A0      		ldd r13,Y+32
 418 0178 00C0      		rjmp .L64
 419               	.LVL32:
 420               	.L120:
 255:../../../os/hal/lib/streams/chprintf.c ****       if (*s == '-' && filler == '0') {
 421               		.loc 1 255 8 discriminator 1 view .LVU94
 422 017a D701      		movw r26,r14
 423 017c ED91      		ld r30,X+
 424 017e FC91      		ld r31,X
 425 0180 0680      		ldd __tmp_reg__,Z+6
 426 0182 F781      		ldd r31,Z+7
 427 0184 E02D      		mov r30,__tmp_reg__
 428               	.LVL33:
 429               	.L64:
 261:../../../os/hal/lib/streams/chprintf.c ****         streamPut(chp, (uint8_t)filler);
 430               		.loc 1 261 7 is_stmt 1 discriminator 1 view .LVU95
 262:../../../os/hal/lib/streams/chprintf.c ****         n++;
 431               		.loc 1 262 9 discriminator 1 view .LVU96
 432 0186 6D2D      		mov r22,r13
 433 0188 C701      		movw r24,r14
 434 018a 0995      		icall
 435               	.LVL34:
 263:../../../os/hal/lib/streams/chprintf.c ****       } while (++width != 0);
 436               		.loc 1 263 9 discriminator 1 view .LVU97
 264:../../../os/hal/lib/streams/chprintf.c ****     }
 437               		.loc 1 264 7 is_stmt 0 discriminator 1 view .LVU98
 438 018c 0F5F      		subi r16,-1
 439 018e 1F4F      		sbci r17,-1
 440               	.LVL35:
 264:../../../os/hal/lib/streams/chprintf.c ****     }
 441               		.loc 1 264 7 discriminator 1 view .LVU99
 442 0190 01F4      		brne .L120
 443 0192 EC8D      		ldd r30,Y+28
 444 0194 FD8D      		ldd r31,Y+29
 445 0196 2E1A      		sub r2,r30
 446 0198 3F0A      		sbc r3,r31
 447               	.LVL36:
 266:../../../os/hal/lib/streams/chprintf.c ****       streamPut(chp, (uint8_t)*s++);
 448               		.loc 1 266 11 view .LVU100
 449 019a 97FC      		sbrc r9,7
 450 019c 00C0      		rjmp .L2
 451               	.LVL37:
 452               	.L67:
 266:../../../os/hal/lib/streams/chprintf.c ****       streamPut(chp, (uint8_t)*s++);
 453               		.loc 1 266 11 view .LVU101
 454 019e 6501      		movw r12,r10
 455 01a0 C80C      		add r12,r8
 456 01a2 D91C      		adc r13,r9
 457               	.L65:
 458               	.LVL38:
 267:../../../os/hal/lib/streams/chprintf.c ****       n++;
 459               		.loc 1 267 7 is_stmt 1 view .LVU102
 267:../../../os/hal/lib/streams/chprintf.c ****       n++;
 460               		.loc 1 267 7 is_stmt 0 view .LVU103
 461 01a4 D701      		movw r26,r14
 462 01a6 ED91      		ld r30,X+
 463 01a8 FC91      		ld r31,X
 464 01aa 0680      		ldd __tmp_reg__,Z+6
 465 01ac F781      		ldd r31,Z+7
 466 01ae E02D      		mov r30,__tmp_reg__
 467 01b0 D501      		movw r26,r10
 468 01b2 6D91      		ld r22,X+
 469 01b4 5D01      		movw r10,r26
 470               	.LVL39:
 267:../../../os/hal/lib/streams/chprintf.c ****       n++;
 471               		.loc 1 267 7 view .LVU104
 472 01b6 C701      		movw r24,r14
 473 01b8 0995      		icall
 474               	.LVL40:
 268:../../../os/hal/lib/streams/chprintf.c ****     }
 475               		.loc 1 268 7 is_stmt 1 view .LVU105
 268:../../../os/hal/lib/streams/chprintf.c ****     }
 476               		.loc 1 268 7 is_stmt 0 view .LVU106
 477 01ba C601      		movw r24,r12
 478 01bc 8A19      		sub r24,r10
 479 01be 9B09      		sbc r25,r11
 266:../../../os/hal/lib/streams/chprintf.c ****       streamPut(chp, (uint8_t)*s++);
 480               		.loc 1 266 11 view .LVU107
 481 01c0 97FF      		sbrs r25,7
 482 01c2 00C0      		rjmp .L65
 483 01c4 BFEF      		ldi r27,-1
 484 01c6 2B1A      		sub r2,r27
 485 01c8 3B0A      		sbc r3,r27
 486 01ca 280C      		add r2,r8
 487 01cc 391C      		adc r3,r9
 488               	.LVL41:
 489               	.L66:
 271:../../../os/hal/lib/streams/chprintf.c ****       streamPut(chp, (uint8_t)filler);
 490               		.loc 1 271 11 view .LVU108
 491 01ce 0115      		cp r16,__zero_reg__
 492 01d0 1105      		cpc r17,__zero_reg__
 493 01d2 01F4      		brne .+2
 494 01d4 00C0      		rjmp .L2
 271:../../../os/hal/lib/streams/chprintf.c ****       streamPut(chp, (uint8_t)filler);
 495               		.loc 1 271 11 view .LVU109
 496 01d6 6801      		movw r12,r16
 497 01d8 B8A0      		ldd r11,Y+32
 498               	.LVL42:
 499               	.L68:
 272:../../../os/hal/lib/streams/chprintf.c ****       n++;
 500               		.loc 1 272 7 is_stmt 1 view .LVU110
 501 01da D701      		movw r26,r14
 502 01dc ED91      		ld r30,X+
 503 01de FC91      		ld r31,X
 504 01e0 0680      		ldd __tmp_reg__,Z+6
 505 01e2 F781      		ldd r31,Z+7
 506 01e4 E02D      		mov r30,__tmp_reg__
 507 01e6 6B2D      		mov r22,r11
 508 01e8 C701      		movw r24,r14
 509 01ea 0995      		icall
 510               	.LVL43:
 273:../../../os/hal/lib/streams/chprintf.c ****       width--;
 511               		.loc 1 273 7 view .LVU111
 274:../../../os/hal/lib/streams/chprintf.c ****     }
 512               		.loc 1 274 7 view .LVU112
 274:../../../os/hal/lib/streams/chprintf.c ****     }
 513               		.loc 1 274 12 is_stmt 0 view .LVU113
 514 01ec B1E0      		ldi r27,1
 515 01ee CB1A      		sub r12,r27
 516 01f0 D108      		sbc r13,__zero_reg__
 517               	.LVL44:
 271:../../../os/hal/lib/streams/chprintf.c ****       streamPut(chp, (uint8_t)filler);
 518               		.loc 1 271 11 view .LVU114
 519 01f2 01F4      		brne .L68
 520 01f4 200E      		add r2,r16
 521 01f6 311E      		adc r3,r17
 522 01f8 00C0      		rjmp .L2
 523               	.LVL45:
 524               	.L121:
 173:../../../os/hal/lib/streams/chprintf.c ****         else
 525               		.loc 1 173 11 is_stmt 1 view .LVU115
 173:../../../os/hal/lib/streams/chprintf.c ****         else
 526               		.loc 1 173 13 is_stmt 0 view .LVU116
 527 01fa D201      		movw r26,r4
 528 01fc 2C91      		ld r18,X
 529               	.LVL46:
 173:../../../os/hal/lib/streams/chprintf.c ****         else
 530               		.loc 1 173 15 view .LVU117
 531 01fe A201      		movw r20,r4
 532 0200 4E5F      		subi r20,-2
 533 0202 5F4F      		sbci r21,-1
 534               	.LVL47:
 173:../../../os/hal/lib/streams/chprintf.c ****         else
 535               		.loc 1 173 15 view .LVU118
 536 0204 2A01      		movw r4,r20
 537               	.LVL48:
 538               	.L12:
 176:../../../os/hal/lib/streams/chprintf.c ****         precision += c;
 539               		.loc 1 176 9 is_stmt 1 view .LVU119
 176:../../../os/hal/lib/streams/chprintf.c ****         precision += c;
 540               		.loc 1 176 19 is_stmt 0 view .LVU120
 541 0206 C801      		movw r24,r16
 542 0208 880F      		lsl r24
 543 020a 991F      		rol r25
 544 020c 880F      		lsl r24
 545 020e 991F      		rol r25
 546 0210 080F      		add r16,r24
 547 0212 191F      		adc r17,r25
 548 0214 000F      		lsl r16
 549 0216 111F      		rol r17
 550               	.LVL49:
 177:../../../os/hal/lib/streams/chprintf.c ****       }
 551               		.loc 1 177 9 is_stmt 1 view .LVU121
 177:../../../os/hal/lib/streams/chprintf.c ****       }
 552               		.loc 1 177 19 is_stmt 0 view .LVU122
 553 0218 020F      		add r16,r18
 554 021a 111D      		adc r17,__zero_reg__
 555               	.LVL50:
 169:../../../os/hal/lib/streams/chprintf.c ****         if (c >= '0' && c <= '9')
 556               		.loc 1 169 17 view .LVU123
 557 021c 3F01      		movw r6,r30
 558               	.LVL51:
 559               	.L13:
 168:../../../os/hal/lib/streams/chprintf.c ****         c = *fmt++;
 560               		.loc 1 168 7 is_stmt 1 view .LVU124
 169:../../../os/hal/lib/streams/chprintf.c ****         if (c >= '0' && c <= '9')
 561               		.loc 1 169 9 view .LVU125
 169:../../../os/hal/lib/streams/chprintf.c ****         if (c >= '0' && c <= '9')
 562               		.loc 1 169 17 is_stmt 0 view .LVU126
 563 021e F301      		movw r30,r6
 169:../../../os/hal/lib/streams/chprintf.c ****         if (c >= '0' && c <= '9')
 564               		.loc 1 169 11 view .LVU127
 565 0220 8191      		ld r24,Z+
 566               	.LVL52:
 170:../../../os/hal/lib/streams/chprintf.c ****           c -= '0';
 567               		.loc 1 170 9 is_stmt 1 view .LVU128
 170:../../../os/hal/lib/streams/chprintf.c ****           c -= '0';
 568               		.loc 1 170 22 is_stmt 0 view .LVU129
 569 0222 20ED      		ldi r18,lo8(-48)
 570 0224 280F      		add r18,r24
 170:../../../os/hal/lib/streams/chprintf.c ****           c -= '0';
 571               		.loc 1 170 12 view .LVU130
 572 0226 2A30      		cpi r18,lo8(10)
 573 0228 00F0      		brlo .L12
 172:../../../os/hal/lib/streams/chprintf.c ****           c = va_arg(ap, int);
 574               		.loc 1 172 14 is_stmt 1 view .LVU131
 172:../../../os/hal/lib/streams/chprintf.c ****           c = va_arg(ap, int);
 575               		.loc 1 172 17 is_stmt 0 view .LVU132
 576 022a 8A32      		cpi r24,lo8(42)
 577 022c 01F0      		breq .L121
 169:../../../os/hal/lib/streams/chprintf.c ****         if (c >= '0' && c <= '9')
 578               		.loc 1 169 17 view .LVU133
 579 022e 3F01      		movw r6,r30
 580               	.LVL53:
 181:../../../os/hal/lib/streams/chprintf.c ****       is_long = TRUE;
 581               		.loc 1 181 5 is_stmt 1 view .LVU134
 181:../../../os/hal/lib/streams/chprintf.c ****       is_long = TRUE;
 582               		.loc 1 181 18 is_stmt 0 view .LVU135
 583 0230 982F      		mov r25,r24
 584 0232 9F7D      		andi r25,lo8(-33)
 585 0234 9C34      		cpi r25,lo8(76)
 586 0236 01F0      		breq .+2
 587 0238 00C0      		rjmp .L103
 588               	.L115:
 182:../../../os/hal/lib/streams/chprintf.c ****       if (*fmt)
 589               		.loc 1 182 7 is_stmt 1 view .LVU136
 590               	.LVL54:
 183:../../../os/hal/lib/streams/chprintf.c ****         c = *fmt++;
 591               		.loc 1 183 7 view .LVU137
 183:../../../os/hal/lib/streams/chprintf.c ****         c = *fmt++;
 592               		.loc 1 183 11 is_stmt 0 view .LVU138
 593 023a D301      		movw r26,r6
 594 023c 9C91      		ld r25,X
 183:../../../os/hal/lib/streams/chprintf.c ****         c = *fmt++;
 595               		.loc 1 183 10 view .LVU139
 596 023e 9923      		tst r25
 597 0240 01F4      		brne .+2
 598 0242 00C0      		rjmp .L16
 183:../../../os/hal/lib/streams/chprintf.c ****         c = *fmt++;
 599               		.loc 1 183 10 view .LVU140
 600 0244 5FEF      		ldi r21,-1
 601 0246 651A      		sub r6,r21
 602 0248 750A      		sbc r7,r21
 603               	.LVL55:
 184:../../../os/hal/lib/streams/chprintf.c ****     }
 604               		.loc 1 184 9 is_stmt 1 view .LVU141
 190:../../../os/hal/lib/streams/chprintf.c ****     case 'c':
 605               		.loc 1 190 5 view .LVU142
 606 024a ECEB      		ldi r30,lo8(-68)
 607 024c E90F      		add r30,r25
 608 024e E533      		cpi r30,lo8(53)
 609 0250 00F0      		brlo .L122
 610               	.L79:
 611 0252 892F      		mov r24,r25
 612 0254 00C0      		rjmp .L16
 613               	.L122:
 190:../../../os/hal/lib/streams/chprintf.c ****     case 'c':
 614               		.loc 1 190 5 is_stmt 0 view .LVU143
 615 0256 F0E0      		ldi r31,0
 616 0258 E050      		subi r30,lo8(-(gs(.L18)))
 617 025a F040      		sbci r31,hi8(-(gs(.L18)))
 618 025c 0C94 0000 		jmp __tablejump2__
 619               		.section	.jumptables.gcc.chvprintf,"a",@progbits
 620               		.p2align	1
 621               	.L18:
 622 0000 0000      		.word gs(.L22)
 623 0002 0000      		.word gs(.L79)
 624 0004 0000      		.word gs(.L79)
 625 0006 0000      		.word gs(.L79)
 626 0008 0000      		.word gs(.L79)
 627 000a 0000      		.word gs(.L22)
 628 000c 0000      		.word gs(.L79)
 629 000e 0000      		.word gs(.L79)
 630 0010 0000      		.word gs(.L79)
 631 0012 0000      		.word gs(.L79)
 632 0014 0000      		.word gs(.L79)
 633 0016 0000      		.word gs(.L21)
 634 0018 0000      		.word gs(.L79)
 635 001a 0000      		.word gs(.L79)
 636 001c 0000      		.word gs(.L79)
 637 001e 0000      		.word gs(.L79)
 638 0020 0000      		.word gs(.L79)
 639 0022 0000      		.word gs(.L19)
 640 0024 0000      		.word gs(.L79)
 641 0026 0000      		.word gs(.L79)
 642 0028 0000      		.word gs(.L80)
 643 002a 0000      		.word gs(.L79)
 644 002c 0000      		.word gs(.L79)
 645 002e 0000      		.word gs(.L79)
 646 0030 0000      		.word gs(.L79)
 647 0032 0000      		.word gs(.L79)
 648 0034 0000      		.word gs(.L79)
 649 0036 0000      		.word gs(.L79)
 650 0038 0000      		.word gs(.L79)
 651 003a 0000      		.word gs(.L79)
 652 003c 0000      		.word gs(.L79)
 653 003e 0000      		.word gs(.L24)
 654 0040 0000      		.word gs(.L22)
 655 0042 0000      		.word gs(.L79)
 656 0044 0000      		.word gs(.L23)
 657 0046 0000      		.word gs(.L79)
 658 0048 0000      		.word gs(.L79)
 659 004a 0000      		.word gs(.L22)
 660 004c 0000      		.word gs(.L79)
 661 004e 0000      		.word gs(.L79)
 662 0050 0000      		.word gs(.L79)
 663 0052 0000      		.word gs(.L79)
 664 0054 0000      		.word gs(.L79)
 665 0056 0000      		.word gs(.L21)
 666 0058 0000      		.word gs(.L79)
 667 005a 0000      		.word gs(.L79)
 668 005c 0000      		.word gs(.L79)
 669 005e 0000      		.word gs(.L20)
 670 0060 0000      		.word gs(.L79)
 671 0062 0000      		.word gs(.L19)
 672 0064 0000      		.word gs(.L79)
 673 0066 0000      		.word gs(.L79)
 674 0068 0000      		.word gs(.L80)
 675               		.section	.text.chvprintf
 676               	.LVL56:
 677               	.L113:
 152:../../../os/hal/lib/streams/chprintf.c ****       filler = '0';
 678               		.loc 1 152 7 is_stmt 1 view .LVU144
 153:../../../os/hal/lib/streams/chprintf.c ****     }
 679               		.loc 1 153 7 view .LVU145
 153:../../../os/hal/lib/streams/chprintf.c ****     }
 680               		.loc 1 153 7 is_stmt 0 view .LVU146
 681 0260 D801      		movw r26,r16
 682 0262 1196      		adiw r26,1
 683 0264 8C91      		ld r24,X
 152:../../../os/hal/lib/streams/chprintf.c ****       filler = '0';
 684               		.loc 1 152 10 view .LVU147
 685 0266 0F5F      		subi r16,-1
 686 0268 1F4F      		sbci r17,-1
 687               	.LVL57:
 153:../../../os/hal/lib/streams/chprintf.c ****     }
 688               		.loc 1 153 14 view .LVU148
 689 026a B0E3      		ldi r27,lo8(48)
 690 026c B8A3      		std Y+32,r27
 691 026e 00C0      		rjmp .L7
 692               	.LVL58:
 693               	.L112:
 147:../../../os/hal/lib/streams/chprintf.c ****       left_align = TRUE;
 694               		.loc 1 147 7 is_stmt 1 view .LVU149
 147:../../../os/hal/lib/streams/chprintf.c ****       left_align = TRUE;
 695               		.loc 1 147 10 is_stmt 0 view .LVU150
 696 0270 8301      		movw r16,r6
 697 0272 0E5F      		subi r16,-2
 698 0274 1F4F      		sbci r17,-1
 699               	.LVL59:
 148:../../../os/hal/lib/streams/chprintf.c ****     }
 700               		.loc 1 148 7 is_stmt 1 view .LVU151
 148:../../../os/hal/lib/streams/chprintf.c ****     }
 701               		.loc 1 148 7 is_stmt 0 view .LVU152
 702 0276 8281      		ldd r24,Z+2
 148:../../../os/hal/lib/streams/chprintf.c ****     }
 703               		.loc 1 148 18 view .LVU153
 704 0278 F1E0      		ldi r31,lo8(1)
 705 027a F9A3      		std Y+33,r31
 706 027c 00C0      		rjmp .L6
 707               	.LVL60:
 708               	.L116:
 190:../../../os/hal/lib/streams/chprintf.c ****     case 'c':
 709               		.loc 1 190 5 view .LVU154
 710 027e F0E0      		ldi r31,0
 711 0280 E050      		subi r30,lo8(-(gs(.L26)))
 712 0282 F040      		sbci r31,hi8(-(gs(.L26)))
 713 0284 0C94 0000 		jmp __tablejump2__
 714               		.section	.jumptables.gcc.chvprintf,"a",@progbits
 715               		.p2align	1
 716               	.L26:
 717 006a 0000      		.word gs(.L29)
 718 006c 0000      		.word gs(.L16)
 719 006e 0000      		.word gs(.L16)
 720 0070 0000      		.word gs(.L16)
 721 0072 0000      		.word gs(.L16)
 722 0074 0000      		.word gs(.L29)
 723 0076 0000      		.word gs(.L16)
 724 0078 0000      		.word gs(.L16)
 725 007a 0000      		.word gs(.L16)
 726 007c 0000      		.word gs(.L16)
 727 007e 0000      		.word gs(.L16)
 728 0080 0000      		.word gs(.L28)
 729 0082 0000      		.word gs(.L16)
 730 0084 0000      		.word gs(.L16)
 731 0086 0000      		.word gs(.L16)
 732 0088 0000      		.word gs(.L16)
 733 008a 0000      		.word gs(.L16)
 734 008c 0000      		.word gs(.L81)
 735 008e 0000      		.word gs(.L16)
 736 0090 0000      		.word gs(.L16)
 737 0092 0000      		.word gs(.L25)
 738 0094 0000      		.word gs(.L16)
 739 0096 0000      		.word gs(.L16)
 740 0098 0000      		.word gs(.L16)
 741 009a 0000      		.word gs(.L16)
 742 009c 0000      		.word gs(.L16)
 743 009e 0000      		.word gs(.L16)
 744 00a0 0000      		.word gs(.L16)
 745 00a2 0000      		.word gs(.L16)
 746 00a4 0000      		.word gs(.L16)
 747 00a6 0000      		.word gs(.L16)
 748 00a8 0000      		.word gs(.L24)
 749 00aa 0000      		.word gs(.L29)
 750 00ac 0000      		.word gs(.L16)
 751 00ae 0000      		.word gs(.L23)
 752 00b0 0000      		.word gs(.L16)
 753 00b2 0000      		.word gs(.L16)
 754 00b4 0000      		.word gs(.L29)
 755 00b6 0000      		.word gs(.L16)
 756 00b8 0000      		.word gs(.L16)
 757 00ba 0000      		.word gs(.L16)
 758 00bc 0000      		.word gs(.L16)
 759 00be 0000      		.word gs(.L16)
 760 00c0 0000      		.word gs(.L28)
 761 00c2 0000      		.word gs(.L16)
 762 00c4 0000      		.word gs(.L16)
 763 00c6 0000      		.word gs(.L16)
 764 00c8 0000      		.word gs(.L20)
 765 00ca 0000      		.word gs(.L16)
 766 00cc 0000      		.word gs(.L81)
 767 00ce 0000      		.word gs(.L16)
 768 00d0 0000      		.word gs(.L16)
 769 00d2 0000      		.word gs(.L25)
 770               		.section	.text.chvprintf
 771               	.LVL61:
 772               	.L20:
 196:../../../os/hal/lib/streams/chprintf.c ****       if ((s = va_arg(ap, char *)) == 0)
 773               		.loc 1 196 7 is_stmt 1 view .LVU155
 197:../../../os/hal/lib/streams/chprintf.c ****         s = "(null)";
 774               		.loc 1 197 7 view .LVU156
 197:../../../os/hal/lib/streams/chprintf.c ****         s = "(null)";
 775               		.loc 1 197 14 is_stmt 0 view .LVU157
 776 0288 D201      		movw r26,r4
 777 028a AD90      		ld r10,X+
 778 028c BD90      		ld r11,X+
 779 028e 2D01      		movw r4,r26
 780               	.LVL62:
 197:../../../os/hal/lib/streams/chprintf.c ****         s = "(null)";
 781               		.loc 1 197 10 view .LVU158
 782 0290 A114      		cp r10,__zero_reg__
 783 0292 B104      		cpc r11,__zero_reg__
 784 0294 01F4      		brne .+2
 785 0296 00C0      		rjmp .L31
 786 0298 F501      		movw r30,r10
 787 029a 8081      		ld r24,Z
 788               	.LVL63:
 199:../../../os/hal/lib/streams/chprintf.c ****         precision = 32767;
 789               		.loc 1 199 7 is_stmt 1 view .LVU159
 199:../../../os/hal/lib/streams/chprintf.c ****         precision = 32767;
 790               		.loc 1 199 10 is_stmt 0 view .LVU160
 791 029c 0115      		cp r16,__zero_reg__
 792 029e 1105      		cpc r17,__zero_reg__
 793 02a0 01F4      		brne .L33
 794               	.LVL64:
 200:../../../os/hal/lib/streams/chprintf.c ****       for (p = s; *p && (--precision >= 0); p++)
 795               		.loc 1 200 19 view .LVU161
 796 02a2 0FEF      		ldi r16,lo8(-1)
 797 02a4 1FE7      		ldi r17,lo8(127)
 798               	.LVL65:
 799               	.L33:
 201:../../../os/hal/lib/streams/chprintf.c ****         ;
 800               		.loc 1 201 7 view .LVU162
 801 02a6 8823      		tst r24
 802 02a8 01F4      		brne .+2
 803 02aa 00C0      		rjmp .L123
 804               	.LVL66:
 805               	.L70:
 201:../../../os/hal/lib/streams/chprintf.c ****         ;
 806               		.loc 1 201 7 view .LVU163
 807 02ac C501      		movw r24,r10
 808 02ae 0196      		adiw r24,1
 809 02b0 0A0D      		add r16,r10
 810 02b2 1B1D      		adc r17,r11
 811 02b4 00C0      		rjmp .L35
 812               	.LVL67:
 813               	.L34:
 201:../../../os/hal/lib/streams/chprintf.c ****         ;
 814               		.loc 1 201 7 view .LVU164
 815 02b6 9801      		movw r18,r16
 816 02b8 281B      		sub r18,r24
 817 02ba 390B      		sbc r19,r25
 201:../../../os/hal/lib/streams/chprintf.c ****         ;
 818               		.loc 1 201 22 discriminator 3 view .LVU165
 819 02bc 37FD      		sbrc r19,7
 820 02be 00C0      		rjmp .L124
 821               	.LVL68:
 822               	.L35:
 202:../../../os/hal/lib/streams/chprintf.c ****       break;
 823               		.loc 1 202 9 is_stmt 1 discriminator 4 view .LVU166
 201:../../../os/hal/lib/streams/chprintf.c ****         ;
 824               		.loc 1 201 46 is_stmt 0 discriminator 4 view .LVU167
 825 02c0 FC01      		movw r30,r24
 826               	.LVL69:
 201:../../../os/hal/lib/streams/chprintf.c ****         ;
 827               		.loc 1 201 46 discriminator 4 view .LVU168
 828 02c2 0196      		adiw r24,1
 829               	.LVL70:
 201:../../../os/hal/lib/streams/chprintf.c ****         ;
 830               		.loc 1 201 7 discriminator 4 view .LVU169
 831 02c4 2081      		ld r18,Z
 832 02c6 2111      		cpse r18,__zero_reg__
 833 02c8 00C0      		rjmp .L34
 834 02ca BF01      		movw r22,r30
 835 02cc 6A19      		sub r22,r10
 836 02ce 7B09      		sbc r23,r11
 837 02d0 4B01      		movw r8,r22
 838 02d2 F1E0      		ldi r31,1
 839 02d4 8F1A      		sub r8,r31
 840 02d6 9108      		sbc r9,__zero_reg__
 196:../../../os/hal/lib/streams/chprintf.c ****       if ((s = va_arg(ap, char *)) == 0)
 841               		.loc 1 196 14 view .LVU170
 842 02d8 20E2      		ldi r18,lo8(32)
 843 02da 28A3      		std Y+32,r18
 844               	.LVL71:
 250:../../../os/hal/lib/streams/chprintf.c ****     if ((width -= i) < 0)
 845               		.loc 1 250 5 is_stmt 1 view .LVU171
 251:../../../os/hal/lib/streams/chprintf.c ****       width = 0;
 846               		.loc 1 251 5 view .LVU172
 251:../../../os/hal/lib/streams/chprintf.c ****       width = 0;
 847               		.loc 1 251 16 is_stmt 0 view .LVU173
 848 02dc 8601      		movw r16,r12
 849 02de 061B      		sub r16,r22
 850 02e0 170B      		sbc r17,r23
 851               	.LVL72:
 251:../../../os/hal/lib/streams/chprintf.c ****       width = 0;
 852               		.loc 1 251 8 view .LVU174
 853 02e2 17FF      		sbrs r17,7
 854 02e4 00C0      		rjmp .L58
 855               	.LVL73:
 856               	.L117:
 254:../../../os/hal/lib/streams/chprintf.c ****     if (width < 0) {
 857               		.loc 1 254 13 view .LVU175
 858 02e6 10E0      		ldi r17,0
 859 02e8 00E0      		ldi r16,0
 266:../../../os/hal/lib/streams/chprintf.c ****       streamPut(chp, (uint8_t)*s++);
 860               		.loc 1 266 11 view .LVU176
 861 02ea 97FE      		sbrs r9,7
 862 02ec 00C0      		rjmp .L67
 863 02ee 00C0      		rjmp .L2
 864               	.LVL74:
 865               	.L23:
 220:../../../os/hal/lib/streams/chprintf.c ****       if (f < 0) {
 866               		.loc 1 220 7 is_stmt 1 view .LVU177
 220:../../../os/hal/lib/streams/chprintf.c ****       if (f < 0) {
 867               		.loc 1 220 9 is_stmt 0 view .LVU178
 868 02f0 F201      		movw r30,r4
 869 02f2 8191      		ld r24,Z+
 870 02f4 9191      		ld r25,Z+
 871 02f6 A191      		ld r26,Z+
 872 02f8 B191      		ld r27,Z+
 873 02fa F9AB      		std Y+49,r31
 874 02fc E8AB      		std Y+48,r30
 875               	.LVL75:
 220:../../../os/hal/lib/streams/chprintf.c ****       if (f < 0) {
 876               		.loc 1 220 9 view .LVU179
 877 02fe 8C8F      		std Y+28,r24
 878 0300 9D8F      		std Y+29,r25
 879 0302 AE8F      		std Y+30,r26
 880 0304 BF8F      		std Y+31,r27
 221:../../../os/hal/lib/streams/chprintf.c ****         *p++ = '-';
 881               		.loc 1 221 7 is_stmt 1 view .LVU180
 221:../../../os/hal/lib/streams/chprintf.c ****         *p++ = '-';
 882               		.loc 1 221 10 is_stmt 0 view .LVU181
 883 0306 20E0      		ldi r18,0
 884 0308 30E0      		ldi r19,0
 885 030a A901      		movw r20,r18
 886 030c BC01      		movw r22,r24
 887 030e CD01      		movw r24,r26
 888 0310 0E94 0000 		call __ltsf2
 889               	.LVL76:
 890 0314 87FD      		sbrc r24,7
 891 0316 00C0      		rjmp .L125
 143:../../../os/hal/lib/streams/chprintf.c ****     s = tmpbuf;
 892               		.loc 1 143 7 view .LVU182
 893 0318 CE01      		movw r24,r28
 894 031a 0196      		adiw r24,1
 895 031c 9BA3      		std Y+35,r25
 896 031e 8AA3      		std Y+34,r24
 897               	.L42:
 898               	.LVL77:
 225:../../../os/hal/lib/streams/chprintf.c ****       break;
 899               		.loc 1 225 7 is_stmt 1 view .LVU183
 900               	.LBB28:
 901               	.LBI28:
  80:../../../os/hal/lib/streams/chprintf.c ****   long l;
 902               		.loc 1 80 14 view .LVU184
 903               	.LBB29:
  81:../../../os/hal/lib/streams/chprintf.c **** 
 904               		.loc 1 81 3 view .LVU185
  83:../../../os/hal/lib/streams/chprintf.c ****     precision = FLOAT_PRECISION;
 905               		.loc 1 83 3 view .LVU186
 906               	.LBE29:
 907               	.LBE28:
 225:../../../os/hal/lib/streams/chprintf.c ****       break;
 908               		.loc 1 225 11 is_stmt 0 view .LVU187
 909 0320 012E      		mov __tmp_reg__,r17
 910 0322 000C      		lsl r0
 911 0324 220B      		sbc r18,r18
 912 0326 330B      		sbc r19,r19
 913               	.LBB36:
 914               	.LBB34:
  83:../../../os/hal/lib/streams/chprintf.c ****     precision = FLOAT_PRECISION;
 915               		.loc 1 83 24 view .LVU188
 916 0328 0150      		subi r16,1
 917 032a 1109      		sbc r17,__zero_reg__
 918 032c 2109      		sbc r18,__zero_reg__
 919 032e 3109      		sbc r19,__zero_reg__
  83:../../../os/hal/lib/streams/chprintf.c ****     precision = FLOAT_PRECISION;
 920               		.loc 1 83 6 view .LVU189
 921 0330 0930      		cpi r16,9
 922 0332 1105      		cpc r17,__zero_reg__
 923 0334 2105      		cpc r18,__zero_reg__
 924 0336 3105      		cpc r19,__zero_reg__
 925 0338 00F0      		brlo .+2
 926 033a 00C0      		rjmp .L85
 927 033c 000F      		lsl r16
 928 033e 111F      		rol r17
 929 0340 000F      		lsl r16
 930 0342 111F      		rol r17
 931 0344 0050      		subi r16,lo8(-(pow10))
 932 0346 1040      		sbci r17,hi8(-(pow10))
 933 0348 D801      		movw r26,r16
 934 034a 2D91      		ld r18,X+
 935 034c 3D91      		ld r19,X+
 936 034e 4D91      		ld r20,X+
 937 0350 5C91      		ld r21,X
 938 0352 2CA3      		std Y+36,r18
 939 0354 3DA3      		std Y+37,r19
 940 0356 4EA3      		std Y+38,r20
 941 0358 5FA3      		std Y+39,r21
 942 035a CA01      		movw r24,r20
 943 035c B901      		movw r22,r18
 944 035e 0E94 0000 		call __floatunsisf
 945               	.LVL78:
 946 0362 6AAB      		std Y+50,r22
 947 0364 7BAB      		std Y+51,r23
 948 0366 8CAB      		std Y+52,r24
 949 0368 9DAB      		std Y+53,r25
 950 036a 6CA1      		ldd r22,Y+36
 951 036c 7DA1      		ldd r23,Y+37
 952 036e 8EA1      		ldd r24,Y+38
 953 0370 9FA1      		ldd r25,Y+39
 954 0372 2AE0      		ldi r18,lo8(10)
 955 0374 30E0      		ldi r19,0
 956 0376 40E0      		ldi r20,0
 957 0378 50E0      		ldi r21,0
 958 037a 0E94 0000 		call __udivmodsi4
 959 037e 4901      		movw r8,r18
 960 0380 5A01      		movw r10,r20
 961               	.L44:
  85:../../../os/hal/lib/streams/chprintf.c **** 
 962               		.loc 1 85 3 is_stmt 1 view .LVU190
  87:../../../os/hal/lib/streams/chprintf.c ****   p = long_to_string_with_divisor(p, l, 10, 0);
 963               		.loc 1 87 3 view .LVU191
  87:../../../os/hal/lib/streams/chprintf.c ****   p = long_to_string_with_divisor(p, l, 10, 0);
 964               		.loc 1 87 5 is_stmt 0 view .LVU192
 965 0382 6C8D      		ldd r22,Y+28
 966 0384 7D8D      		ldd r23,Y+29
 967 0386 8E8D      		ldd r24,Y+30
 968 0388 9F8D      		ldd r25,Y+31
 969 038a 0E94 0000 		call __fixsfsi
 970               	.LVL79:
 971 038e 68A7      		std Y+40,r22
 972 0390 7AA7      		std Y+42,r23
 973 0392 8CA7      		std Y+44,r24
 974 0394 9EA7      		std Y+46,r25
 975               	.LVL80:
  88:../../../os/hal/lib/streams/chprintf.c ****   *p++ = '.';
 976               		.loc 1 88 3 is_stmt 1 view .LVU193
 977               	.LBB30:
 978               	.LBI30:
  37:../../../os/hal/lib/streams/chprintf.c ****                                          long num,
 979               		.loc 1 37 14 view .LVU194
 980               	.LBB31:
  41:../../../os/hal/lib/streams/chprintf.c ****   char *q;
 981               		.loc 1 41 3 view .LVU195
  42:../../../os/hal/lib/streams/chprintf.c ****   long l, ll;
 982               		.loc 1 42 3 view .LVU196
  43:../../../os/hal/lib/streams/chprintf.c **** 
 983               		.loc 1 43 3 view .LVU197
  45:../../../os/hal/lib/streams/chprintf.c ****   if (divisor == 0) {
 984               		.loc 1 45 3 view .LVU198
  46:../../../os/hal/lib/streams/chprintf.c ****     ll = num;
 985               		.loc 1 46 3 view .LVU199
  52:../../../os/hal/lib/streams/chprintf.c ****   do {
 986               		.loc 1 52 3 view .LVU200
  52:../../../os/hal/lib/streams/chprintf.c ****   do {
 987               		.loc 1 52 5 is_stmt 0 view .LVU201
 988 0396 4AA0      		ldd r4,Y+34
 989 0398 5BA0      		ldd r5,Y+35
 990 039a 9BE0      		ldi r25,11
 991 039c 490E      		add r4,r25
 992 039e 511C      		adc r5,__zero_reg__
 993               	.LVL81:
  45:../../../os/hal/lib/streams/chprintf.c ****   if (divisor == 0) {
 994               		.loc 1 45 5 view .LVU202
 995 03a0 9EA5      		ldd r25,Y+46
  52:../../../os/hal/lib/streams/chprintf.c ****   do {
 996               		.loc 1 52 5 view .LVU203
 997 03a2 042D      		mov r16,r4
 998 03a4 152D      		mov r17,r5
 999 03a6 00C0      		rjmp .L45
 1000               	.LVL82:
 1001               	.L86:
  58:../../../os/hal/lib/streams/chprintf.c ****     l /= radix;
 1002               		.loc 1 58 10 view .LVU204
 1003 03a8 8F01      		movw r16,r30
 1004               	.LVL83:
 1005               	.L45:
  53:../../../os/hal/lib/streams/chprintf.c ****     i = (int)(l % radix);
 1006               		.loc 1 53 3 is_stmt 1 view .LVU205
  54:../../../os/hal/lib/streams/chprintf.c ****     i += '0';
 1007               		.loc 1 54 5 view .LVU206
  54:../../../os/hal/lib/streams/chprintf.c ****     i += '0';
 1008               		.loc 1 54 17 is_stmt 0 view .LVU207
 1009 03aa 2AE0      		ldi r18,lo8(10)
 1010 03ac 30E0      		ldi r19,0
 1011 03ae 40E0      		ldi r20,0
 1012 03b0 50E0      		ldi r21,0
 1013 03b2 0E94 0000 		call __divmodsi4
 1014               	.LVL84:
  55:../../../os/hal/lib/streams/chprintf.c ****     if (i > '9')
 1015               		.loc 1 55 5 is_stmt 1 view .LVU208
  56:../../../os/hal/lib/streams/chprintf.c ****       i += 'A' - '0' - 10;
 1016               		.loc 1 56 5 view .LVU209
  58:../../../os/hal/lib/streams/chprintf.c ****     l /= radix;
 1017               		.loc 1 58 5 view .LVU210
  58:../../../os/hal/lib/streams/chprintf.c ****     l /= radix;
 1018               		.loc 1 58 10 is_stmt 0 view .LVU211
 1019 03b6 F801      		movw r30,r16
 1020               	.LVL85:
  55:../../../os/hal/lib/streams/chprintf.c ****     if (i > '9')
 1021               		.loc 1 55 7 view .LVU212
 1022 03b8 605D      		subi r22,-48
 1023 03ba 7F4F      		sbci r23,-1
 1024               	.LVL86:
  58:../../../os/hal/lib/streams/chprintf.c ****     l /= radix;
 1025               		.loc 1 58 10 view .LVU213
 1026 03bc A62F      		mov r26,r22
 1027 03be 6293      		st -Z,r22
  59:../../../os/hal/lib/streams/chprintf.c ****   } while ((ll /= radix) != 0);
 1028               		.loc 1 59 5 is_stmt 1 view .LVU214
  59:../../../os/hal/lib/streams/chprintf.c ****   } while ((ll /= radix) != 0);
 1029               		.loc 1 59 7 is_stmt 0 view .LVU215
 1030 03c0 B901      		movw r22,r18
 1031 03c2 CA01      		movw r24,r20
 1032               	.LVL87:
  60:../../../os/hal/lib/streams/chprintf.c **** 
 1033               		.loc 1 60 3 view .LVU216
 1034 03c4 6115      		cp r22,__zero_reg__
 1035 03c6 7105      		cpc r23,__zero_reg__
 1036 03c8 8105      		cpc r24,__zero_reg__
 1037 03ca 9105      		cpc r25,__zero_reg__
 1038 03cc 01F4      		brne .L86
 1039 03ce 412F      		mov r20,r17
 1040               	.LVL88:
  60:../../../os/hal/lib/streams/chprintf.c **** 
 1041               		.loc 1 60 3 view .LVU217
 1042 03d0 1A2F      		mov r17,r26
  62:../../../os/hal/lib/streams/chprintf.c ****   do
 1043               		.loc 1 62 3 is_stmt 1 view .LVU218
  62:../../../os/hal/lib/streams/chprintf.c ****   do
 1044               		.loc 1 62 5 is_stmt 0 view .LVU219
 1045 03d2 9201      		movw r18,r4
  62:../../../os/hal/lib/streams/chprintf.c ****   do
 1046               		.loc 1 62 5 view .LVU220
 1047 03d4 2E1B      		sub r18,r30
 1048 03d6 3F0B      		sbc r19,r31
 1049               	.LVL89:
  62:../../../os/hal/lib/streams/chprintf.c ****   do
 1050               		.loc 1 62 5 view .LVU221
 1051 03d8 A02F      		mov r26,r16
 1052 03da B42F      		mov r27,r20
 1053 03dc 4AA0      		ldd r4,Y+34
 1054 03de 5BA0      		ldd r5,Y+35
 1055 03e0 420E      		add r4,r18
 1056 03e2 531E      		adc r5,r19
 1057 03e4 9AA1      		ldd r25,Y+34
 1058 03e6 8BA1      		ldd r24,Y+35
 1059 03e8 00C0      		rjmp .L47
 1060               	.LVL90:
 1061               	.L126:
  62:../../../os/hal/lib/streams/chprintf.c ****   do
 1062               		.loc 1 62 5 view .LVU222
 1063 03ea 1D91      		ld r17,X+
 1064 03ec 9E2F      		mov r25,r30
 1065               	.LVL91:
  62:../../../os/hal/lib/streams/chprintf.c ****   do
 1066               		.loc 1 62 5 view .LVU223
 1067 03ee 8F2F      		mov r24,r31
 1068               	.LVL92:
 1069               	.L47:
  63:../../../os/hal/lib/streams/chprintf.c ****     *p++ = *q++;
 1070               		.loc 1 63 3 is_stmt 1 view .LVU224
  64:../../../os/hal/lib/streams/chprintf.c ****   while (--i);
 1071               		.loc 1 64 5 view .LVU225
  64:../../../os/hal/lib/streams/chprintf.c ****   while (--i);
 1072               		.loc 1 64 7 is_stmt 0 view .LVU226
 1073 03f0 E92F      		mov r30,r25
 1074 03f2 F82F      		mov r31,r24
 1075               	.LVL93:
  64:../../../os/hal/lib/streams/chprintf.c ****   while (--i);
 1076               		.loc 1 64 10 view .LVU227
 1077 03f4 1193      		st Z+,r17
 1078               	.LVL94:
  65:../../../os/hal/lib/streams/chprintf.c **** 
 1079               		.loc 1 65 3 view .LVU228
 1080 03f6 E415      		cp r30,r4
 1081 03f8 F505      		cpc r31,r5
 1082 03fa 01F4      		brne .L126
  67:../../../os/hal/lib/streams/chprintf.c **** }
 1083               		.loc 1 67 3 is_stmt 1 view .LVU229
 1084               	.LVL95:
  67:../../../os/hal/lib/streams/chprintf.c **** }
 1085               		.loc 1 67 3 is_stmt 0 view .LVU230
 1086               	.LBE31:
 1087               	.LBE30:
  89:../../../os/hal/lib/streams/chprintf.c ****   l = (long)((num - l) * precision);
 1088               		.loc 1 89 3 is_stmt 1 view .LVU231
  89:../../../os/hal/lib/streams/chprintf.c ****   l = (long)((num - l) * precision);
 1089               		.loc 1 89 5 is_stmt 0 view .LVU232
 1090 03fc 2F5F      		subi r18,-1
 1091 03fe 3F4F      		sbci r19,-1
 1092 0400 AAA1      		ldd r26,Y+34
 1093 0402 BBA1      		ldd r27,Y+35
 1094 0404 A20F      		add r26,r18
 1095 0406 B31F      		adc r27,r19
 1096 0408 BBA3      		std Y+35,r27
 1097 040a AAA3      		std Y+34,r26
 1098               	.LVL96:
  89:../../../os/hal/lib/streams/chprintf.c ****   l = (long)((num - l) * precision);
 1099               		.loc 1 89 8 view .LVU233
 1100 040c 8EE2      		ldi r24,lo8(46)
 1101 040e F201      		movw r30,r4
 1102 0410 8083      		st Z,r24
  90:../../../os/hal/lib/streams/chprintf.c ****   return long_to_string_with_divisor(p, l, 10, precision / 10);
 1103               		.loc 1 90 3 is_stmt 1 view .LVU234
  90:../../../os/hal/lib/streams/chprintf.c ****   return long_to_string_with_divisor(p, l, 10, precision / 10);
 1104               		.loc 1 90 19 is_stmt 0 view .LVU235
 1105 0412 68A5      		ldd r22,Y+40
 1106 0414 7AA5      		ldd r23,Y+42
 1107               	.LVL97:
  90:../../../os/hal/lib/streams/chprintf.c ****   return long_to_string_with_divisor(p, l, 10, precision / 10);
 1108               		.loc 1 90 19 view .LVU236
 1109 0416 8CA5      		ldd r24,Y+44
 1110 0418 9EA5      		ldd r25,Y+46
 1111 041a 0E94 0000 		call __floatsisf
 1112               	.LVL98:
  90:../../../os/hal/lib/streams/chprintf.c ****   return long_to_string_with_divisor(p, l, 10, precision / 10);
 1113               		.loc 1 90 19 view .LVU237
 1114 041e 9B01      		movw r18,r22
 1115 0420 AC01      		movw r20,r24
 1116 0422 6C8D      		ldd r22,Y+28
 1117 0424 7D8D      		ldd r23,Y+29
 1118 0426 8E8D      		ldd r24,Y+30
 1119 0428 9F8D      		ldd r25,Y+31
 1120 042a 0E94 0000 		call __subsf3
 1121               	.LVL99:
  90:../../../os/hal/lib/streams/chprintf.c ****   return long_to_string_with_divisor(p, l, 10, precision / 10);
 1122               		.loc 1 90 24 view .LVU238
 1123 042e 2AA9      		ldd r18,Y+50
 1124 0430 3BA9      		ldd r19,Y+51
 1125 0432 4CA9      		ldd r20,Y+52
 1126 0434 5DA9      		ldd r21,Y+53
 1127 0436 0E94 0000 		call __mulsf3
 1128               	.LVL100:
  90:../../../os/hal/lib/streams/chprintf.c ****   return long_to_string_with_divisor(p, l, 10, precision / 10);
 1129               		.loc 1 90 5 view .LVU239
 1130 043a 0E94 0000 		call __fixsfsi
 1131               	.LVL101:
 1132 043e E82F      		mov r30,r24
 1133               	.LVL102:
  91:../../../os/hal/lib/streams/chprintf.c **** }
 1134               		.loc 1 91 3 is_stmt 1 view .LVU240
 1135               	.LBB32:
 1136               	.LBI32:
  37:../../../os/hal/lib/streams/chprintf.c ****                                          long num,
 1137               		.loc 1 37 14 view .LVU241
 1138               	.LBB33:
  41:../../../os/hal/lib/streams/chprintf.c ****   char *q;
 1139               		.loc 1 41 3 view .LVU242
  42:../../../os/hal/lib/streams/chprintf.c ****   long l, ll;
 1140               		.loc 1 42 3 view .LVU243
  43:../../../os/hal/lib/streams/chprintf.c **** 
 1141               		.loc 1 43 3 view .LVU244
  45:../../../os/hal/lib/streams/chprintf.c ****   if (divisor == 0) {
 1142               		.loc 1 45 3 view .LVU245
  46:../../../os/hal/lib/streams/chprintf.c ****     ll = num;
 1143               		.loc 1 46 3 view .LVU246
  46:../../../os/hal/lib/streams/chprintf.c ****     ll = num;
 1144               		.loc 1 46 6 is_stmt 0 view .LVU247
 1145 0440 2CA1      		ldd r18,Y+36
 1146 0442 3DA1      		ldd r19,Y+37
 1147 0444 4EA1      		ldd r20,Y+38
 1148 0446 5FA1      		ldd r21,Y+39
 1149 0448 2A30      		cpi r18,10
 1150 044a 3105      		cpc r19,__zero_reg__
 1151 044c 4105      		cpc r20,__zero_reg__
 1152 044e 5105      		cpc r21,__zero_reg__
 1153 0450 00F4      		brsh .L48
  47:../../../os/hal/lib/streams/chprintf.c ****   } else {
 1154               		.loc 1 47 8 view .LVU248
 1155 0452 4B01      		movw r8,r22
 1156 0454 A82E      		mov r10,r24
 1157 0456 B92E      		mov r11,r25
 1158               	.L48:
 1159               	.LVL103:
  52:../../../os/hal/lib/streams/chprintf.c ****   do {
 1160               		.loc 1 52 3 is_stmt 1 view .LVU249
  52:../../../os/hal/lib/streams/chprintf.c ****   do {
 1161               		.loc 1 52 5 is_stmt 0 view .LVU250
 1162 0458 A201      		movw r20,r4
 1163 045a 445F      		subi r20,-12
 1164 045c 5F4F      		sbci r21,-1
 1165 045e 5DA3      		std Y+37,r21
 1166 0460 4CA3      		std Y+36,r20
 1167               	.LVL104:
  52:../../../os/hal/lib/streams/chprintf.c ****   do {
 1168               		.loc 1 52 5 view .LVU251
 1169 0462 8CA1      		ldd r24,Y+36
 1170               	.LVL105:
  52:../../../os/hal/lib/streams/chprintf.c ****   do {
 1171               		.loc 1 52 5 view .LVU252
 1172 0464 4DA0      		ldd r4,Y+37
 1173 0466 D9A6      		std Y+41,r13
 1174 0468 C8A6      		std Y+40,r12
 1175 046a 3BA6      		std Y+43,r3
 1176 046c 2AA6      		std Y+42,r2
 1177 046e FDA6      		std Y+45,r15
 1178 0470 ECA6      		std Y+44,r14
 1179 0472 7FA6      		std Y+47,r7
 1180 0474 6EA6      		std Y+46,r6
 1181 0476 F62E      		mov r15,r22
 1182 0478 D72E      		mov r13,r23
 1183 047a 7E2E      		mov r7,r30
 1184 047c 392E      		mov r3,r25
 1185 047e 582E      		mov r5,r24
 1186 0480 00C0      		rjmp .L49
 1187               	.LVL106:
 1188               	.L87:
  58:../../../os/hal/lib/streams/chprintf.c ****     l /= radix;
 1189               		.loc 1 58 10 view .LVU253
 1190 0482 502E      		mov r5,r16
 1191               	.LVL107:
  58:../../../os/hal/lib/streams/chprintf.c ****     l /= radix;
 1192               		.loc 1 58 10 view .LVU254
 1193 0484 412E      		mov r4,r17
 1194               	.LVL108:
 1195               	.L49:
  53:../../../os/hal/lib/streams/chprintf.c ****     i = (int)(l % radix);
 1196               		.loc 1 53 3 is_stmt 1 view .LVU255
  54:../../../os/hal/lib/streams/chprintf.c ****     i += '0';
 1197               		.loc 1 54 5 view .LVU256
  54:../../../os/hal/lib/streams/chprintf.c ****     i += '0';
 1198               		.loc 1 54 17 is_stmt 0 view .LVU257
 1199 0486 6F2D      		mov r22,r15
 1200 0488 7D2D      		mov r23,r13
 1201 048a 872D      		mov r24,r7
 1202 048c 932D      		mov r25,r3
 1203 048e 2AE0      		ldi r18,lo8(10)
 1204 0490 30E0      		ldi r19,0
 1205 0492 40E0      		ldi r20,0
 1206 0494 50E0      		ldi r21,0
 1207 0496 0E94 0000 		call __divmodsi4
 1208               	.LVL109:
  55:../../../os/hal/lib/streams/chprintf.c ****     if (i > '9')
 1209               		.loc 1 55 5 is_stmt 1 view .LVU258
  56:../../../os/hal/lib/streams/chprintf.c ****       i += 'A' - '0' - 10;
 1210               		.loc 1 56 5 view .LVU259
  58:../../../os/hal/lib/streams/chprintf.c ****     l /= radix;
 1211               		.loc 1 58 5 view .LVU260
  58:../../../os/hal/lib/streams/chprintf.c ****     l /= radix;
 1212               		.loc 1 58 10 is_stmt 0 view .LVU261
 1213 049a 052D      		mov r16,r5
 1214 049c 142D      		mov r17,r4
 1215               	.LVL110:
  55:../../../os/hal/lib/streams/chprintf.c ****     if (i > '9')
 1216               		.loc 1 55 7 view .LVU262
 1217 049e 605D      		subi r22,-48
 1218 04a0 7F4F      		sbci r23,-1
 1219               	.LVL111:
  58:../../../os/hal/lib/streams/chprintf.c ****     l /= radix;
 1220               		.loc 1 58 10 view .LVU263
 1221 04a2 6C8F      		std Y+28,r22
 1222 04a4 D801      		movw r26,r16
 1223 04a6 6E93      		st -X,r22
 1224 04a8 8D01      		movw r16,r26
  59:../../../os/hal/lib/streams/chprintf.c ****   } while ((ll /= radix) != 0);
 1225               		.loc 1 59 5 is_stmt 1 view .LVU264
  59:../../../os/hal/lib/streams/chprintf.c ****   } while ((ll /= radix) != 0);
 1226               		.loc 1 59 7 is_stmt 0 view .LVU265
 1227 04aa F22E      		mov r15,r18
 1228               	.LVL112:
  59:../../../os/hal/lib/streams/chprintf.c ****   } while ((ll /= radix) != 0);
 1229               		.loc 1 59 7 view .LVU266
 1230 04ac D32E      		mov r13,r19
 1231 04ae 742E      		mov r7,r20
 1232 04b0 352E      		mov r3,r21
 1233               	.LVL113:
  60:../../../os/hal/lib/streams/chprintf.c **** 
 1234               		.loc 1 60 16 view .LVU267
 1235 04b2 C501      		movw r24,r10
 1236 04b4 B401      		movw r22,r8
 1237 04b6 2AE0      		ldi r18,lo8(10)
 1238 04b8 30E0      		ldi r19,0
 1239 04ba 40E0      		ldi r20,0
 1240 04bc 50E0      		ldi r21,0
 1241 04be 0E94 0000 		call __divmodsi4
 1242 04c2 4901      		movw r8,r18
 1243               	.LVL114:
  60:../../../os/hal/lib/streams/chprintf.c **** 
 1244               		.loc 1 60 16 view .LVU268
 1245 04c4 5A01      		movw r10,r20
  60:../../../os/hal/lib/streams/chprintf.c **** 
 1246               		.loc 1 60 3 view .LVU269
 1247 04c6 8114      		cp r8,__zero_reg__
 1248 04c8 9104      		cpc r9,__zero_reg__
 1249 04ca A104      		cpc r10,__zero_reg__
 1250 04cc B104      		cpc r11,__zero_reg__
 1251 04ce 01F4      		brne .L87
  60:../../../os/hal/lib/streams/chprintf.c **** 
 1252               		.loc 1 60 3 view .LVU270
 1253 04d0 C8A4      		ldd r12,Y+40
 1254 04d2 D9A4      		ldd r13,Y+41
 1255               	.LVL115:
  60:../../../os/hal/lib/streams/chprintf.c **** 
 1256               		.loc 1 60 3 view .LVU271
 1257 04d4 2AA4      		ldd r2,Y+42
 1258 04d6 3BA4      		ldd r3,Y+43
 1259               	.LVL116:
  60:../../../os/hal/lib/streams/chprintf.c **** 
 1260               		.loc 1 60 3 view .LVU272
 1261 04d8 ECA4      		ldd r14,Y+44
 1262 04da FDA4      		ldd r15,Y+45
 1263 04dc 6EA4      		ldd r6,Y+46
 1264 04de 7FA4      		ldd r7,Y+47
 1265 04e0 852D      		mov r24,r5
 1266 04e2 5C8C      		ldd r5,Y+28
 1267               	.LVL117:
  62:../../../os/hal/lib/streams/chprintf.c ****   do
 1268               		.loc 1 62 3 is_stmt 1 view .LVU273
  62:../../../os/hal/lib/streams/chprintf.c ****   do
 1269               		.loc 1 62 3 is_stmt 0 view .LVU274
 1270 04e4 E82F      		mov r30,r24
 1271 04e6 F42D      		mov r31,r4
  62:../../../os/hal/lib/streams/chprintf.c ****   do
 1272               		.loc 1 62 5 view .LVU275
 1273 04e8 2CA1      		ldd r18,Y+36
 1274 04ea 3DA1      		ldd r19,Y+37
 1275 04ec 201B      		sub r18,r16
 1276 04ee 310B      		sbc r19,r17
 1277 04f0 C801      		movw r24,r16
 1278               	.LVL118:
  62:../../../os/hal/lib/streams/chprintf.c ****   do
 1279               		.loc 1 62 5 view .LVU276
 1280 04f2 820F      		add r24,r18
 1281 04f4 931F      		adc r25,r19
 1282 04f6 5AA1      		ldd r21,Y+34
 1283 04f8 4BA1      		ldd r20,Y+35
 1284 04fa 00C0      		rjmp .L51
 1285               	.LVL119:
 1286               	.L50:
  62:../../../os/hal/lib/streams/chprintf.c ****   do
 1287               		.loc 1 62 5 view .LVU277
 1288 04fc 5190      		ld r5,Z+
  64:../../../os/hal/lib/streams/chprintf.c ****   while (--i);
 1289               		.loc 1 64 7 view .LVU278
 1290 04fe 5A2F      		mov r21,r26
 1291 0500 4B2F      		mov r20,r27
 1292               	.LVL120:
 1293               	.L51:
  63:../../../os/hal/lib/streams/chprintf.c ****     *p++ = *q++;
 1294               		.loc 1 63 3 is_stmt 1 view .LVU279
  64:../../../os/hal/lib/streams/chprintf.c ****   while (--i);
 1295               		.loc 1 64 5 view .LVU280
  64:../../../os/hal/lib/streams/chprintf.c ****   while (--i);
 1296               		.loc 1 64 7 is_stmt 0 view .LVU281
 1297 0502 A52F      		mov r26,r21
 1298 0504 B42F      		mov r27,r20
 1299               	.LVL121:
  64:../../../os/hal/lib/streams/chprintf.c ****   while (--i);
 1300               		.loc 1 64 10 view .LVU282
 1301 0506 5D92      		st X+,r5
 1302               	.LVL122:
  65:../../../os/hal/lib/streams/chprintf.c **** 
 1303               		.loc 1 65 3 view .LVU283
 1304 0508 8E17      		cp r24,r30
 1305 050a 9F07      		cpc r25,r31
 1306 050c 01F4      		brne .L50
 1307 050e 8AA1      		ldd r24,Y+34
 1308 0510 9BA1      		ldd r25,Y+35
 1309 0512 820F      		add r24,r18
 1310 0514 931F      		adc r25,r19
 1311 0516 BC01      		movw r22,r24
 1312 0518 EA8D      		ldd r30,Y+26
 1313 051a FB8D      		ldd r31,Y+27
 1314 051c 6E1B      		sub r22,r30
 1315 051e 7F0B      		sbc r23,r31
 1316 0520 4B01      		movw r8,r22
 1317 0522 F1E0      		ldi r31,1
 1318 0524 8F1A      		sub r8,r31
 1319 0526 9108      		sbc r9,__zero_reg__
 1320               	.LBE33:
 1321               	.LBE32:
 1322               	.LBE34:
 1323               	.LBE36:
 220:../../../os/hal/lib/streams/chprintf.c ****       if (f < 0) {
 1324               		.loc 1 220 9 view .LVU284
 1325 0528 48A8      		ldd r4,Y+48
 1326 052a 59A8      		ldd r5,Y+49
 144:../../../os/hal/lib/streams/chprintf.c ****     left_align = FALSE;
 1327               		.loc 1 144 7 view .LVU285
 1328 052c 9E01      		movw r18,r28
 1329 052e 2F5F      		subi r18,-1
 1330 0530 3F4F      		sbci r19,-1
 1331 0532 5901      		movw r10,r18
 1332 0534 00C0      		rjmp .L30
 1333               	.LVL123:
 1334               	.L24:
 192:../../../os/hal/lib/streams/chprintf.c ****       *p++ = va_arg(ap, int);
 1335               		.loc 1 192 7 is_stmt 1 view .LVU286
 193:../../../os/hal/lib/streams/chprintf.c ****       break;
 1336               		.loc 1 193 7 view .LVU287
 193:../../../os/hal/lib/streams/chprintf.c ****       break;
 1337               		.loc 1 193 12 is_stmt 0 view .LVU288
 1338 0536 D201      		movw r26,r4
 1339 0538 8C91      		ld r24,X
 1340 053a 8983      		std Y+1,r24
 194:../../../os/hal/lib/streams/chprintf.c ****     case 's':
 1341               		.loc 1 194 7 is_stmt 1 view .LVU289
 193:../../../os/hal/lib/streams/chprintf.c ****       break;
 1342               		.loc 1 193 14 is_stmt 0 view .LVU290
 1343 053c F201      		movw r30,r4
 1344 053e 3296      		adiw r30,2
 1345               	.LVL124:
 193:../../../os/hal/lib/streams/chprintf.c ****       break;
 1346               		.loc 1 193 14 view .LVU291
 1347 0540 2F01      		movw r4,r30
 194:../../../os/hal/lib/streams/chprintf.c ****     case 's':
 1348               		.loc 1 194 7 view .LVU292
 1349 0542 912C      		mov r9,__zero_reg__
 1350 0544 812C      		mov r8,__zero_reg__
 1351 0546 61E0      		ldi r22,lo8(1)
 1352 0548 70E0      		ldi r23,0
 192:../../../os/hal/lib/streams/chprintf.c ****       *p++ = va_arg(ap, int);
 1353               		.loc 1 192 14 view .LVU293
 1354 054a F0E2      		ldi r31,lo8(32)
 1355 054c F8A3      		std Y+32,r31
 144:../../../os/hal/lib/streams/chprintf.c ****     left_align = FALSE;
 1356               		.loc 1 144 7 view .LVU294
 1357 054e 9E01      		movw r18,r28
 1358 0550 2F5F      		subi r18,-1
 1359 0552 3F4F      		sbci r19,-1
 1360 0554 5901      		movw r10,r18
 194:../../../os/hal/lib/streams/chprintf.c ****     case 's':
 1361               		.loc 1 194 7 view .LVU295
 1362 0556 00C0      		rjmp .L30
 1363               	.LVL125:
 1364               	.L118:
 254:../../../os/hal/lib/streams/chprintf.c ****     if (width < 0) {
 1365               		.loc 1 254 13 view .LVU296
 1366 0558 0C8D      		ldd r16,Y+28
 1367 055a 1D8D      		ldd r17,Y+29
 1368               	.LVL126:
 1369               	.L61:
 266:../../../os/hal/lib/streams/chprintf.c ****       streamPut(chp, (uint8_t)*s++);
 1370               		.loc 1 266 11 view .LVU297
 1371 055c 97FE      		sbrs r9,7
 1372 055e 00C0      		rjmp .L67
 1373 0560 00C0      		rjmp .L66
 1374               	.LVL127:
 1375               	.L125:
 222:../../../os/hal/lib/streams/chprintf.c ****         f = -f;
 1376               		.loc 1 222 9 is_stmt 1 view .LVU298
 222:../../../os/hal/lib/streams/chprintf.c ****         f = -f;
 1377               		.loc 1 222 14 is_stmt 0 view .LVU299
 1378 0562 8DE2      		ldi r24,lo8(45)
 1379 0564 8983      		std Y+1,r24
 223:../../../os/hal/lib/streams/chprintf.c ****       }
 1380               		.loc 1 223 9 is_stmt 1 view .LVU300
 223:../../../os/hal/lib/streams/chprintf.c ****       }
 1381               		.loc 1 223 11 is_stmt 0 view .LVU301
 1382 0566 2C8D      		ldd r18,Y+28
 1383 0568 3D8D      		ldd r19,Y+29
 1384 056a 4E8D      		ldd r20,Y+30
 1385 056c 5F8D      		ldd r21,Y+31
 1386 056e 5058      		subi r21,0x80
 1387 0570 2C8F      		std Y+28,r18
 1388 0572 3D8F      		std Y+29,r19
 1389 0574 4E8F      		std Y+30,r20
 1390 0576 5F8F      		std Y+31,r21
 1391               	.LVL128:
 222:../../../os/hal/lib/streams/chprintf.c ****         f = -f;
 1392               		.loc 1 222 11 view .LVU302
 1393 0578 AE01      		movw r20,r28
 1394 057a 4E5F      		subi r20,-2
 1395 057c 5F4F      		sbci r21,-1
 1396 057e 5BA3      		std Y+35,r21
 1397 0580 4AA3      		std Y+34,r20
 1398 0582 00C0      		rjmp .L42
 1399               	.LVL129:
 1400               	.L31:
 199:../../../os/hal/lib/streams/chprintf.c ****         precision = 32767;
 1401               		.loc 1 199 7 is_stmt 1 view .LVU303
 198:../../../os/hal/lib/streams/chprintf.c ****       if (precision == 0)
 1402               		.loc 1 198 11 is_stmt 0 view .LVU304
 1403 0584 90E0      		ldi r25,lo8(.LC0)
 1404 0586 A92E      		mov r10,r25
 1405 0588 90E0      		ldi r25,hi8(.LC0)
 1406 058a B92E      		mov r11,r25
 199:../../../os/hal/lib/streams/chprintf.c ****         precision = 32767;
 1407               		.loc 1 199 10 view .LVU305
 1408 058c 0115      		cp r16,__zero_reg__
 1409 058e 1105      		cpc r17,__zero_reg__
 1410 0590 01F0      		breq .+2
 1411 0592 00C0      		rjmp .L70
 1412               	.LVL130:
 200:../../../os/hal/lib/streams/chprintf.c ****       for (p = s; *p && (--precision >= 0); p++)
 1413               		.loc 1 200 19 view .LVU306
 1414 0594 0FEF      		ldi r16,lo8(-1)
 1415 0596 1FE7      		ldi r17,lo8(127)
 198:../../../os/hal/lib/streams/chprintf.c ****       if (precision == 0)
 1416               		.loc 1 198 11 view .LVU307
 1417 0598 80E0      		ldi r24,lo8(.LC0)
 1418 059a A82E      		mov r10,r24
 1419 059c 80E0      		ldi r24,hi8(.LC0)
 1420 059e B82E      		mov r11,r24
 1421 05a0 00C0      		rjmp .L70
 1422               	.LVL131:
 1423               	.L19:
 190:../../../os/hal/lib/streams/chprintf.c ****     case 'c':
 1424               		.loc 1 190 5 view .LVU308
 1425 05a2 AAE0      		ldi r26,lo8(10)
 1426 05a4 8A2E      		mov r8,r26
 1427 05a6 912C      		mov r9,__zero_reg__
 1428 05a8 A12C      		mov r10,__zero_reg__
 1429 05aa B12C      		mov r11,__zero_reg__
 1430               	.LVL132:
 1431               	.L17:
 241:../../../os/hal/lib/streams/chprintf.c ****       else
 1432               		.loc 1 241 9 is_stmt 1 view .LVU309
 241:../../../os/hal/lib/streams/chprintf.c ****       else
 1433               		.loc 1 241 13 is_stmt 0 view .LVU310
 1434 05ac F201      		movw r30,r4
 1435               	.LVL133:
 241:../../../os/hal/lib/streams/chprintf.c ****       else
 1436               		.loc 1 241 11 view .LVU311
 1437 05ae 6191      		ld r22,Z+
 1438 05b0 7191      		ld r23,Z+
 1439 05b2 8191      		ld r24,Z+
 1440 05b4 9191      		ld r25,Z+
 1441               	.LVL134:
 241:../../../os/hal/lib/streams/chprintf.c ****       else
 1442               		.loc 1 241 13 view .LVU312
 1443 05b6 2F01      		movw r4,r30
 1444               	.LVL135:
 1445               	.L53:
 243:../../../os/hal/lib/streams/chprintf.c ****       p = ch_ltoa(p, l, c);
 1446               		.loc 1 243 13 view .LVU313
 1447 05b8 088D      		ldd r16,Y+24
 1448 05ba 198D      		ldd r17,Y+25
 1449 05bc 00C0      		rjmp .L55
 1450               	.LVL136:
 1451               	.L88:
 1452               	.LBB37:
 1453               	.LBB38:
 1454               	.LBB39:
  58:../../../os/hal/lib/streams/chprintf.c ****     l /= radix;
 1455               		.loc 1 58 10 view .LVU314
 1456 05be 8F01      		movw r16,r30
 1457               	.LVL137:
 1458               	.L55:
  53:../../../os/hal/lib/streams/chprintf.c ****     i = (int)(l % radix);
 1459               		.loc 1 53 3 is_stmt 1 view .LVU315
  54:../../../os/hal/lib/streams/chprintf.c ****     i += '0';
 1460               		.loc 1 54 5 view .LVU316
 1461 05c0 A501      		movw r20,r10
 1462 05c2 9401      		movw r18,r8
 1463 05c4 0E94 0000 		call __divmodsi4
 1464               	.LVL138:
  55:../../../os/hal/lib/streams/chprintf.c ****     if (i > '9')
 1465               		.loc 1 55 5 view .LVU317
  55:../../../os/hal/lib/streams/chprintf.c ****     if (i > '9')
 1466               		.loc 1 55 7 is_stmt 0 view .LVU318
 1467 05c8 DB01      		movw r26,r22
 1468 05ca D096      		adiw r26,48
 1469 05cc BD8F      		std Y+29,r27
 1470 05ce AC8F      		std Y+28,r26
 1471               	.LVL139:
  56:../../../os/hal/lib/streams/chprintf.c ****       i += 'A' - '0' - 10;
 1472               		.loc 1 56 5 is_stmt 1 view .LVU319
  56:../../../os/hal/lib/streams/chprintf.c ****       i += 'A' - '0' - 10;
 1473               		.loc 1 56 8 is_stmt 0 view .LVU320
 1474 05d0 DA97      		sbiw r26,58
 1475 05d2 04F0      		brlt .L54
  57:../../../os/hal/lib/streams/chprintf.c ****     *--q = i;
 1476               		.loc 1 57 7 is_stmt 1 view .LVU321
  57:../../../os/hal/lib/streams/chprintf.c ****     *--q = i;
 1477               		.loc 1 57 9 is_stmt 0 view .LVU322
 1478 05d4 FB01      		movw r30,r22
 1479 05d6 F796      		adiw r30,55
 1480 05d8 FD8F      		std Y+29,r31
 1481 05da EC8F      		std Y+28,r30
 1482               	.LVL140:
 1483               	.L54:
  58:../../../os/hal/lib/streams/chprintf.c ****     l /= radix;
 1484               		.loc 1 58 5 is_stmt 1 view .LVU323
  58:../../../os/hal/lib/streams/chprintf.c ****     l /= radix;
 1485               		.loc 1 58 10 is_stmt 0 view .LVU324
 1486 05dc F801      		movw r30,r16
 1487               	.LVL141:
  58:../../../os/hal/lib/streams/chprintf.c ****     l /= radix;
 1488               		.loc 1 58 10 view .LVU325
 1489 05de AC8D      		ldd r26,Y+28
 1490 05e0 A293      		st -Z,r26
  59:../../../os/hal/lib/streams/chprintf.c ****   } while ((ll /= radix) != 0);
 1491               		.loc 1 59 5 is_stmt 1 view .LVU326
  59:../../../os/hal/lib/streams/chprintf.c ****   } while ((ll /= radix) != 0);
 1492               		.loc 1 59 7 is_stmt 0 view .LVU327
 1493 05e2 CA01      		movw r24,r20
 1494 05e4 B901      		movw r22,r18
  60:../../../os/hal/lib/streams/chprintf.c **** 
 1495               		.loc 1 60 3 view .LVU328
 1496 05e6 6115      		cp r22,__zero_reg__
 1497 05e8 7105      		cpc r23,__zero_reg__
 1498 05ea 8105      		cpc r24,__zero_reg__
 1499 05ec 9105      		cpc r25,__zero_reg__
 1500 05ee 01F4      		brne .L88
 1501 05f0 9A2F      		mov r25,r26
  62:../../../os/hal/lib/streams/chprintf.c ****   do
 1502               		.loc 1 62 3 is_stmt 1 view .LVU329
  62:../../../os/hal/lib/streams/chprintf.c ****   do
 1503               		.loc 1 62 5 is_stmt 0 view .LVU330
 1504 05f2 688D      		ldd r22,Y+24
 1505 05f4 798D      		ldd r23,Y+25
 1506 05f6 6E1B      		sub r22,r30
 1507 05f8 7F0B      		sbc r23,r31
 1508               	.LVL142:
  62:../../../os/hal/lib/streams/chprintf.c ****   do
 1509               		.loc 1 62 5 view .LVU331
 1510 05fa D801      		movw r26,r16
 1511 05fc 21E0      		ldi r18,lo8(1)
 1512 05fe 30E0      		ldi r19,0
 1513 0600 2C0F      		add r18,r28
 1514 0602 3D1F      		adc r19,r29
 1515 0604 260F      		add r18,r22
 1516 0606 371F      		adc r19,r23
 1517 0608 4A8D      		ldd r20,Y+26
 1518 060a 8B8D      		ldd r24,Y+27
 1519 060c 00C0      		rjmp .L57
 1520               	.LVL143:
 1521               	.L56:
  62:../../../os/hal/lib/streams/chprintf.c ****   do
 1522               		.loc 1 62 5 view .LVU332
 1523 060e 9D91      		ld r25,X+
 1524 0610 4E2F      		mov r20,r30
 1525 0612 8F2F      		mov r24,r31
 1526               	.LVL144:
 1527               	.L57:
  63:../../../os/hal/lib/streams/chprintf.c ****     *p++ = *q++;
 1528               		.loc 1 63 3 is_stmt 1 view .LVU333
  64:../../../os/hal/lib/streams/chprintf.c ****   while (--i);
 1529               		.loc 1 64 5 view .LVU334
  64:../../../os/hal/lib/streams/chprintf.c ****   while (--i);
 1530               		.loc 1 64 7 is_stmt 0 view .LVU335
 1531 0614 E42F      		mov r30,r20
 1532 0616 F82F      		mov r31,r24
 1533               	.LVL145:
  64:../../../os/hal/lib/streams/chprintf.c ****   while (--i);
 1534               		.loc 1 64 10 view .LVU336
 1535 0618 9193      		st Z+,r25
 1536               	.LVL146:
  65:../../../os/hal/lib/streams/chprintf.c **** 
 1537               		.loc 1 65 3 view .LVU337
 1538 061a E217      		cp r30,r18
 1539 061c F307      		cpc r31,r19
 1540 061e 01F4      		brne .L56
 1541 0620 4B01      		movw r8,r22
 1542 0622 F1E0      		ldi r31,1
 1543 0624 8F1A      		sub r8,r31
 1544 0626 9108      		sbc r9,__zero_reg__
 1545               	.LBE39:
 1546               	.LBE38:
 1547               	.LBE37:
 144:../../../os/hal/lib/streams/chprintf.c ****     left_align = FALSE;
 1548               		.loc 1 144 7 view .LVU338
 1549 0628 9E01      		movw r18,r28
 1550 062a 2F5F      		subi r18,-1
 1551 062c 3F4F      		sbci r19,-1
 1552 062e 5901      		movw r10,r18
 1553 0630 00C0      		rjmp .L30
 1554               	.LVL147:
 1555               	.L80:
 190:../../../os/hal/lib/streams/chprintf.c ****     case 'c':
 1556               		.loc 1 190 5 view .LVU339
 1557 0632 40E1      		ldi r20,lo8(16)
 1558 0634 842E      		mov r8,r20
 1559 0636 912C      		mov r9,__zero_reg__
 1560 0638 A12C      		mov r10,__zero_reg__
 1561 063a B12C      		mov r11,__zero_reg__
 1562 063c 00C0      		rjmp .L17
 1563               	.L21:
 1564               	.LVL148:
 240:../../../os/hal/lib/streams/chprintf.c ****         l = va_arg(ap, unsigned long);
 1565               		.loc 1 240 7 is_stmt 1 view .LVU340
 190:../../../os/hal/lib/streams/chprintf.c ****     case 'c':
 1566               		.loc 1 190 5 is_stmt 0 view .LVU341
 1567 063e 28E0      		ldi r18,lo8(8)
 1568 0640 822E      		mov r8,r18
 1569 0642 912C      		mov r9,__zero_reg__
 1570 0644 A12C      		mov r10,__zero_reg__
 1571 0646 B12C      		mov r11,__zero_reg__
 1572 0648 00C0      		rjmp .L17
 1573               	.LVL149:
 1574               	.L29:
 208:../../../os/hal/lib/streams/chprintf.c ****         l = va_arg(ap, long);
 1575               		.loc 1 208 7 is_stmt 1 view .LVU342
 208:../../../os/hal/lib/streams/chprintf.c ****         l = va_arg(ap, long);
 1576               		.loc 1 208 10 is_stmt 0 view .LVU343
 1577 064a 9A31      		cpi r25,lo8(26)
 1578 064c 00F4      		brsh .+2
 1579 064e 00C0      		rjmp .L22
 211:../../../os/hal/lib/streams/chprintf.c ****       if (l < 0) {
 1580               		.loc 1 211 9 is_stmt 1 view .LVU344
 211:../../../os/hal/lib/streams/chprintf.c ****       if (l < 0) {
 1581               		.loc 1 211 13 is_stmt 0 view .LVU345
 1582 0650 F201      		movw r30,r4
 1583               	.LVL150:
 211:../../../os/hal/lib/streams/chprintf.c ****       if (l < 0) {
 1584               		.loc 1 211 11 view .LVU346
 1585 0652 6191      		ld r22,Z+
 1586 0654 7191      		ld r23,Z+
 1587               	.LVL151:
 211:../../../os/hal/lib/streams/chprintf.c ****       if (l < 0) {
 1588               		.loc 1 211 11 view .LVU347
 1589 0656 072E      		mov __tmp_reg__,r23
 1590 0658 000C      		lsl r0
 1591 065a 880B      		sbc r24,r24
 1592 065c 990B      		sbc r25,r25
 1593               	.LVL152:
 211:../../../os/hal/lib/streams/chprintf.c ****       if (l < 0) {
 1594               		.loc 1 211 13 view .LVU348
 1595 065e 2F01      		movw r4,r30
 1596               	.LVL153:
 1597               	.L37:
 212:../../../os/hal/lib/streams/chprintf.c ****         *p++ = '-';
 1598               		.loc 1 212 7 is_stmt 1 view .LVU349
 143:../../../os/hal/lib/streams/chprintf.c ****     s = tmpbuf;
 1599               		.loc 1 143 7 is_stmt 0 view .LVU350
 1600 0660 8E01      		movw r16,r28
 1601 0662 0F5F      		subi r16,-1
 1602 0664 1F4F      		sbci r17,-1
 212:../../../os/hal/lib/streams/chprintf.c ****         *p++ = '-';
 1603               		.loc 1 212 10 view .LVU351
 1604 0666 97FF      		sbrs r25,7
 1605 0668 00C0      		rjmp .L38
 213:../../../os/hal/lib/streams/chprintf.c ****         l = -l;
 1606               		.loc 1 213 9 is_stmt 1 view .LVU352
 1607               	.LVL154:
 213:../../../os/hal/lib/streams/chprintf.c ****         l = -l;
 1608               		.loc 1 213 14 is_stmt 0 view .LVU353
 1609 066a 2DE2      		ldi r18,lo8(45)
 1610 066c 2983      		std Y+1,r18
 214:../../../os/hal/lib/streams/chprintf.c ****       }
 1611               		.loc 1 214 9 is_stmt 1 view .LVU354
 214:../../../os/hal/lib/streams/chprintf.c ****       }
 1612               		.loc 1 214 11 is_stmt 0 view .LVU355
 1613 066e 9095      		com r25
 1614 0670 8095      		com r24
 1615 0672 7095      		com r23
 1616 0674 6195      		neg r22
 1617 0676 7F4F      		sbci r23,lo8(-1)
 1618 0678 8F4F      		sbci r24,lo8(-1)
 1619 067a 9F4F      		sbci r25,lo8(-1)
 1620               	.LVL155:
 213:../../../os/hal/lib/streams/chprintf.c ****         l = -l;
 1621               		.loc 1 213 11 view .LVU356
 1622 067c 8E01      		movw r16,r28
 1623 067e 0E5F      		subi r16,-2
 1624 0680 1F4F      		sbci r17,-1
 1625               	.LVL156:
 1626               	.L38:
 216:../../../os/hal/lib/streams/chprintf.c ****       break;
 1627               		.loc 1 216 7 is_stmt 1 view .LVU357
 1628               	.LBB40:
 1629               	.LBI40:
  70:../../../os/hal/lib/streams/chprintf.c **** 
 1630               		.loc 1 70 14 view .LVU358
 1631               	.LBE40:
  72:../../../os/hal/lib/streams/chprintf.c **** }
 1632               		.loc 1 72 3 view .LVU359
 1633               	.LBB43:
 1634               	.LBB41:
 1635               	.LBI41:
  37:../../../os/hal/lib/streams/chprintf.c ****                                          long num,
 1636               		.loc 1 37 14 view .LVU360
 1637               	.LBB42:
  41:../../../os/hal/lib/streams/chprintf.c ****   char *q;
 1638               		.loc 1 41 3 view .LVU361
  42:../../../os/hal/lib/streams/chprintf.c ****   long l, ll;
 1639               		.loc 1 42 3 view .LVU362
  43:../../../os/hal/lib/streams/chprintf.c **** 
 1640               		.loc 1 43 3 view .LVU363
  45:../../../os/hal/lib/streams/chprintf.c ****   if (divisor == 0) {
 1641               		.loc 1 45 3 view .LVU364
  46:../../../os/hal/lib/streams/chprintf.c ****     ll = num;
 1642               		.loc 1 46 3 view .LVU365
  52:../../../os/hal/lib/streams/chprintf.c ****   do {
 1643               		.loc 1 52 3 view .LVU366
  52:../../../os/hal/lib/streams/chprintf.c ****   do {
 1644               		.loc 1 52 5 is_stmt 0 view .LVU367
 1645 0682 D801      		movw r26,r16
 1646 0684 1B96      		adiw r26,11
 1647 0686 BD8F      		std Y+29,r27
 1648 0688 AC8F      		std Y+28,r26
 1649               	.LVL157:
  52:../../../os/hal/lib/streams/chprintf.c ****   do {
 1650               		.loc 1 52 5 view .LVU368
 1651 068a BC8C      		ldd r11,Y+28
 1652 068c AD8C      		ldd r10,Y+29
 1653 068e 00C0      		rjmp .L39
 1654               	.LVL158:
 1655               	.L83:
  58:../../../os/hal/lib/streams/chprintf.c ****     l /= radix;
 1656               		.loc 1 58 10 view .LVU369
 1657 0690 BE2E      		mov r11,r30
 1658               	.LVL159:
  58:../../../os/hal/lib/streams/chprintf.c ****     l /= radix;
 1659               		.loc 1 58 10 view .LVU370
 1660 0692 AF2E      		mov r10,r31
 1661               	.LVL160:
 1662               	.L39:
  53:../../../os/hal/lib/streams/chprintf.c ****     i = (int)(l % radix);
 1663               		.loc 1 53 3 is_stmt 1 view .LVU371
  54:../../../os/hal/lib/streams/chprintf.c ****     i += '0';
 1664               		.loc 1 54 5 view .LVU372
  54:../../../os/hal/lib/streams/chprintf.c ****     i += '0';
 1665               		.loc 1 54 17 is_stmt 0 view .LVU373
 1666 0694 2AE0      		ldi r18,lo8(10)
 1667 0696 30E0      		ldi r19,0
 1668 0698 40E0      		ldi r20,0
 1669 069a 50E0      		ldi r21,0
 1670 069c 0E94 0000 		call __divmodsi4
 1671               	.LVL161:
  55:../../../os/hal/lib/streams/chprintf.c ****     if (i > '9')
 1672               		.loc 1 55 5 is_stmt 1 view .LVU374
  56:../../../os/hal/lib/streams/chprintf.c ****       i += 'A' - '0' - 10;
 1673               		.loc 1 56 5 view .LVU375
  58:../../../os/hal/lib/streams/chprintf.c ****     l /= radix;
 1674               		.loc 1 58 5 view .LVU376
  58:../../../os/hal/lib/streams/chprintf.c ****     l /= radix;
 1675               		.loc 1 58 10 is_stmt 0 view .LVU377
 1676 06a0 EB2D      		mov r30,r11
 1677 06a2 FA2D      		mov r31,r10
 1678               	.LVL162:
  55:../../../os/hal/lib/streams/chprintf.c ****     if (i > '9')
 1679               		.loc 1 55 7 view .LVU378
 1680 06a4 605D      		subi r22,-48
 1681 06a6 7F4F      		sbci r23,-1
 1682               	.LVL163:
  58:../../../os/hal/lib/streams/chprintf.c ****     l /= radix;
 1683               		.loc 1 58 10 view .LVU379
 1684 06a8 962E      		mov r9,r22
 1685 06aa 6293      		st -Z,r22
  59:../../../os/hal/lib/streams/chprintf.c ****   } while ((ll /= radix) != 0);
 1686               		.loc 1 59 5 is_stmt 1 view .LVU380
  59:../../../os/hal/lib/streams/chprintf.c ****   } while ((ll /= radix) != 0);
 1687               		.loc 1 59 7 is_stmt 0 view .LVU381
 1688 06ac B901      		movw r22,r18
 1689 06ae CA01      		movw r24,r20
 1690               	.LVL164:
  60:../../../os/hal/lib/streams/chprintf.c **** 
 1691               		.loc 1 60 3 view .LVU382
 1692 06b0 6115      		cp r22,__zero_reg__
 1693 06b2 7105      		cpc r23,__zero_reg__
 1694 06b4 8105      		cpc r24,__zero_reg__
 1695 06b6 9105      		cpc r25,__zero_reg__
 1696 06b8 01F4      		brne .L83
  62:../../../os/hal/lib/streams/chprintf.c ****   do
 1697               		.loc 1 62 3 is_stmt 1 view .LVU383
 1698               	.LVL165:
  62:../../../os/hal/lib/streams/chprintf.c ****   do
 1699               		.loc 1 62 3 is_stmt 0 view .LVU384
 1700 06ba AB2D      		mov r26,r11
 1701 06bc BA2D      		mov r27,r10
  62:../../../os/hal/lib/streams/chprintf.c ****   do
 1702               		.loc 1 62 5 view .LVU385
 1703 06be 8C8D      		ldd r24,Y+28
 1704 06c0 9D8D      		ldd r25,Y+29
 1705 06c2 8E1B      		sub r24,r30
 1706 06c4 9F0B      		sbc r25,r31
 1707 06c6 800F      		add r24,r16
 1708 06c8 911F      		adc r25,r17
 1709 06ca 00C0      		rjmp .L41
 1710               	.LVL166:
 1711               	.L40:
  62:../../../os/hal/lib/streams/chprintf.c ****   do
 1712               		.loc 1 62 5 view .LVU386
 1713 06cc 9D90      		ld r9,X+
 1714               	.LVL167:
  62:../../../os/hal/lib/streams/chprintf.c ****   do
 1715               		.loc 1 62 5 view .LVU387
 1716 06ce 8F01      		movw r16,r30
 1717               	.LVL168:
 1718               	.L41:
  63:../../../os/hal/lib/streams/chprintf.c ****     *p++ = *q++;
 1719               		.loc 1 63 3 is_stmt 1 view .LVU388
  64:../../../os/hal/lib/streams/chprintf.c ****   while (--i);
 1720               		.loc 1 64 5 view .LVU389
  64:../../../os/hal/lib/streams/chprintf.c ****   while (--i);
 1721               		.loc 1 64 7 is_stmt 0 view .LVU390
 1722 06d0 F801      		movw r30,r16
 1723               	.LVL169:
  64:../../../os/hal/lib/streams/chprintf.c ****   while (--i);
 1724               		.loc 1 64 10 view .LVU391
 1725 06d2 9192      		st Z+,r9
 1726               	.LVL170:
  65:../../../os/hal/lib/streams/chprintf.c **** 
 1727               		.loc 1 65 3 view .LVU392
 1728 06d4 8E17      		cp r24,r30
 1729 06d6 9F07      		cpc r25,r31
 1730 06d8 01F4      		brne .L40
 1731 06da BC01      		movw r22,r24
 1732 06dc EA8D      		ldd r30,Y+26
 1733 06de FB8D      		ldd r31,Y+27
 1734 06e0 6E1B      		sub r22,r30
 1735 06e2 7F0B      		sbc r23,r31
 1736 06e4 4B01      		movw r8,r22
 1737 06e6 F1E0      		ldi r31,1
 1738 06e8 8F1A      		sub r8,r31
 1739 06ea 9108      		sbc r9,__zero_reg__
 1740               	.LBE42:
 1741               	.LBE41:
 1742               	.LBE43:
 144:../../../os/hal/lib/streams/chprintf.c ****     left_align = FALSE;
 1743               		.loc 1 144 7 view .LVU393
 1744 06ec 9E01      		movw r18,r28
 1745               	.LVL171:
 144:../../../os/hal/lib/streams/chprintf.c ****     left_align = FALSE;
 1746               		.loc 1 144 7 view .LVU394
 1747 06ee 2F5F      		subi r18,-1
 1748 06f0 3F4F      		sbci r19,-1
 1749 06f2 5901      		movw r10,r18
 1750               	.LVL172:
 144:../../../os/hal/lib/streams/chprintf.c ****     left_align = FALSE;
 1751               		.loc 1 144 7 view .LVU395
 1752 06f4 00C0      		rjmp .L30
 1753               	.LVL173:
 1754               	.L22:
 209:../../../os/hal/lib/streams/chprintf.c ****       else
 1755               		.loc 1 209 9 is_stmt 1 view .LVU396
 209:../../../os/hal/lib/streams/chprintf.c ****       else
 1756               		.loc 1 209 11 is_stmt 0 view .LVU397
 1757 06f6 F201      		movw r30,r4
 1758               	.LVL174:
 209:../../../os/hal/lib/streams/chprintf.c ****       else
 1759               		.loc 1 209 11 view .LVU398
 1760 06f8 6191      		ld r22,Z+
 1761 06fa 7191      		ld r23,Z+
 1762 06fc 8191      		ld r24,Z+
 1763 06fe 9191      		ld r25,Z+
 1764               	.LVL175:
 209:../../../os/hal/lib/streams/chprintf.c ****       else
 1765               		.loc 1 209 11 view .LVU399
 1766 0700 2F01      		movw r4,r30
 1767               	.LVL176:
 209:../../../os/hal/lib/streams/chprintf.c ****       else
 1768               		.loc 1 209 11 view .LVU400
 1769 0702 00C0      		rjmp .L37
 1770               	.LVL177:
 1771               	.L81:
 190:../../../os/hal/lib/streams/chprintf.c ****     case 'c':
 1772               		.loc 1 190 5 view .LVU401
 1773 0704 5AE0      		ldi r21,lo8(10)
 1774 0706 852E      		mov r8,r21
 1775 0708 912C      		mov r9,__zero_reg__
 1776 070a A12C      		mov r10,__zero_reg__
 1777 070c B12C      		mov r11,__zero_reg__
 1778               	.L27:
 1779               	.LVL178:
 240:../../../os/hal/lib/streams/chprintf.c ****         l = va_arg(ap, unsigned long);
 1780               		.loc 1 240 7 is_stmt 1 view .LVU402
 240:../../../os/hal/lib/streams/chprintf.c ****         l = va_arg(ap, unsigned long);
 1781               		.loc 1 240 10 is_stmt 0 view .LVU403
 1782 070e 9A31      		cpi r25,lo8(26)
 1783 0710 00F4      		brsh .+2
 1784 0712 00C0      		rjmp .L17
 243:../../../os/hal/lib/streams/chprintf.c ****       p = ch_ltoa(p, l, c);
 1785               		.loc 1 243 9 is_stmt 1 view .LVU404
 243:../../../os/hal/lib/streams/chprintf.c ****       p = ch_ltoa(p, l, c);
 1786               		.loc 1 243 13 is_stmt 0 view .LVU405
 1787 0714 F201      		movw r30,r4
 1788               	.LVL179:
 243:../../../os/hal/lib/streams/chprintf.c ****       p = ch_ltoa(p, l, c);
 1789               		.loc 1 243 11 view .LVU406
 1790 0716 6191      		ld r22,Z+
 1791 0718 7191      		ld r23,Z+
 1792               	.LVL180:
 243:../../../os/hal/lib/streams/chprintf.c ****       p = ch_ltoa(p, l, c);
 1793               		.loc 1 243 11 view .LVU407
 1794 071a 90E0      		ldi r25,0
 1795               	.LVL181:
 243:../../../os/hal/lib/streams/chprintf.c ****       p = ch_ltoa(p, l, c);
 1796               		.loc 1 243 11 view .LVU408
 1797 071c 80E0      		ldi r24,0
 1798               	.LVL182:
 243:../../../os/hal/lib/streams/chprintf.c ****       p = ch_ltoa(p, l, c);
 1799               		.loc 1 243 13 view .LVU409
 1800 071e 2F01      		movw r4,r30
 1801               	.LVL183:
 243:../../../os/hal/lib/streams/chprintf.c ****       p = ch_ltoa(p, l, c);
 1802               		.loc 1 243 13 view .LVU410
 1803 0720 00C0      		rjmp .L53
 1804               	.LVL184:
 1805               	.L28:
 190:../../../os/hal/lib/streams/chprintf.c ****     case 'c':
 1806               		.loc 1 190 5 view .LVU411
 1807 0722 68E0      		ldi r22,lo8(8)
 1808 0724 862E      		mov r8,r22
 1809 0726 912C      		mov r9,__zero_reg__
 1810 0728 A12C      		mov r10,__zero_reg__
 1811 072a B12C      		mov r11,__zero_reg__
 1812 072c 00C0      		rjmp .L27
 1813               	.L25:
 1814 072e F0E1      		ldi r31,lo8(16)
 1815 0730 8F2E      		mov r8,r31
 1816 0732 912C      		mov r9,__zero_reg__
 1817 0734 A12C      		mov r10,__zero_reg__
 1818 0736 B12C      		mov r11,__zero_reg__
 1819 0738 00C0      		rjmp .L27
 1820               	.LVL185:
 1821               	.L119:
 256:../../../os/hal/lib/streams/chprintf.c ****         streamPut(chp, (uint8_t)*s++);
 1822               		.loc 1 256 21 discriminator 1 view .LVU412
 1823 073a B8A1      		ldd r27,Y+32
 1824 073c B033      		cpi r27,lo8(48)
 1825 073e 01F0      		breq .+2
 1826 0740 00C0      		rjmp .L62
 1827 0742 2FEF      		ldi r18,-1
 1828 0744 221A      		sub r2,r18
 1829 0746 320A      		sbc r3,r18
 257:../../../os/hal/lib/streams/chprintf.c ****         n++;
 1830               		.loc 1 257 9 is_stmt 1 view .LVU413
 1831               	.LVL186:
 257:../../../os/hal/lib/streams/chprintf.c ****         n++;
 1832               		.loc 1 257 9 is_stmt 0 view .LVU414
 1833 0748 3FEF      		ldi r19,-1
 1834 074a A31A      		sub r10,r19
 1835 074c B30A      		sbc r11,r19
 1836               	.LVL187:
 257:../../../os/hal/lib/streams/chprintf.c ****         n++;
 1837               		.loc 1 257 9 view .LVU415
 1838 074e 6DE2      		ldi r22,lo8(45)
 1839 0750 C701      		movw r24,r14
 1840 0752 0995      		icall
 1841               	.LVL188:
 258:../../../os/hal/lib/streams/chprintf.c ****         i--;
 1842               		.loc 1 258 9 is_stmt 1 view .LVU416
 259:../../../os/hal/lib/streams/chprintf.c ****       }
 1843               		.loc 1 259 9 view .LVU417
 1844 0754 41E0      		ldi r20,1
 1845 0756 841A      		sub r8,r20
 1846 0758 9108      		sbc r9,__zero_reg__
 1847 075a D701      		movw r26,r14
 1848 075c ED91      		ld r30,X+
 1849 075e FC91      		ld r31,X
 1850 0760 0680      		ldd __tmp_reg__,Z+6
 1851 0762 F781      		ldd r31,Z+7
 1852 0764 E02D      		mov r30,__tmp_reg__
 1853 0766 00C0      		rjmp .L62
 1854               	.LVL189:
 1855               	.L85:
 1856               	.LBB44:
 1857               	.LBB35:
  83:../../../os/hal/lib/streams/chprintf.c ****     precision = FLOAT_PRECISION;
 1858               		.loc 1 83 6 is_stmt 0 view .LVU418
 1859 0768 812C      		mov r8,__zero_reg__
 1860 076a 71EE      		ldi r23,lo8(-31)
 1861 076c 972E      		mov r9,r23
 1862 076e 75EF      		ldi r23,lo8(-11)
 1863 0770 A72E      		mov r10,r23
 1864 0772 75E0      		ldi r23,lo8(5)
 1865 0774 B72E      		mov r11,r23
 1866 0776 28E2      		ldi r18,lo8(40)
 1867 0778 3BE6      		ldi r19,lo8(107)
 1868 077a 4EE6      		ldi r20,lo8(110)
 1869 077c 5EE4      		ldi r21,lo8(78)
 1870 077e 2AAB      		std Y+50,r18
 1871 0780 3BAB      		std Y+51,r19
 1872 0782 4CAB      		std Y+52,r20
 1873 0784 5DAB      		std Y+53,r21
 1874 0786 80E0      		ldi r24,0
 1875 0788 9AEC      		ldi r25,lo8(-54)
 1876 078a AAE9      		ldi r26,lo8(-102)
 1877 078c BBE3      		ldi r27,lo8(59)
 1878 078e 8CA3      		std Y+36,r24
 1879 0790 9DA3      		std Y+37,r25
 1880 0792 AEA3      		std Y+38,r26
 1881 0794 BFA3      		std Y+39,r27
 1882 0796 00C0      		rjmp .L44
 1883               	.LVL190:
 1884               	.L124:
  83:../../../os/hal/lib/streams/chprintf.c ****     precision = FLOAT_PRECISION;
 1885               		.loc 1 83 6 view .LVU419
 1886 0798 BF01      		movw r22,r30
 1887 079a 6A19      		sub r22,r10
 1888 079c 7B09      		sbc r23,r11
 1889 079e 4B01      		movw r8,r22
 1890 07a0 31E0      		ldi r19,1
 1891 07a2 831A      		sub r8,r19
 1892 07a4 9108      		sbc r9,__zero_reg__
 1893               	.LBE35:
 1894               	.LBE44:
 196:../../../os/hal/lib/streams/chprintf.c ****       if ((s = va_arg(ap, char *)) == 0)
 1895               		.loc 1 196 14 view .LVU420
 1896 07a6 40E2      		ldi r20,lo8(32)
 1897 07a8 48A3      		std Y+32,r20
 1898 07aa 00C0      		rjmp .L30
 1899               	.LVL191:
 1900               	.L123:
 253:../../../os/hal/lib/streams/chprintf.c ****       width = -width;
 1901               		.loc 1 253 5 is_stmt 1 view .LVU421
 253:../../../os/hal/lib/streams/chprintf.c ****       width = -width;
 1902               		.loc 1 253 8 is_stmt 0 view .LVU422
 1903 07ac B9A1      		ldd r27,Y+33
 1904 07ae B111      		cpse r27,__zero_reg__
 1905 07b0 00C0      		rjmp .L92
 254:../../../os/hal/lib/streams/chprintf.c ****     if (width < 0) {
 1906               		.loc 1 254 7 is_stmt 1 view .LVU423
 254:../../../os/hal/lib/streams/chprintf.c ****     if (width < 0) {
 1907               		.loc 1 254 13 is_stmt 0 view .LVU424
 1908 07b2 EE27      		clr r30
 1909 07b4 FF27      		clr r31
 1910 07b6 EC19      		sub r30,r12
 1911 07b8 FD09      		sbc r31,r13
 1912 07ba FD8F      		std Y+29,r31
 1913 07bc EC8F      		std Y+28,r30
 1914               	.LVL192:
 255:../../../os/hal/lib/streams/chprintf.c ****       if (*s == '-' && filler == '0') {
 1915               		.loc 1 255 5 is_stmt 1 view .LVU425
 255:../../../os/hal/lib/streams/chprintf.c ****       if (*s == '-' && filler == '0') {
 1916               		.loc 1 255 8 is_stmt 0 view .LVU426
 1917 07be CD28      		or r12,r13
 1918 07c0 01F0      		breq .L127
 196:../../../os/hal/lib/streams/chprintf.c ****       if ((s = va_arg(ap, char *)) == 0)
 1919               		.loc 1 196 14 view .LVU427
 1920 07c2 B0E2      		ldi r27,lo8(32)
 1921 07c4 B8A3      		std Y+32,r27
 255:../../../os/hal/lib/streams/chprintf.c ****       if (*s == '-' && filler == '0') {
 1922               		.loc 1 255 8 view .LVU428
 1923 07c6 8824      		clr r8
 1924 07c8 8A94      		dec r8
 1925 07ca 982C      		mov r9,r8
 1926 07cc 00C0      		rjmp .L74
 1927               	.LVL193:
 1928               	.L92:
 253:../../../os/hal/lib/streams/chprintf.c ****       width = -width;
 1929               		.loc 1 253 8 view .LVU429
 1930 07ce 8601      		movw r16,r12
 196:../../../os/hal/lib/streams/chprintf.c ****       if ((s = va_arg(ap, char *)) == 0)
 1931               		.loc 1 196 14 view .LVU430
 1932 07d0 E0E2      		ldi r30,lo8(32)
 1933 07d2 E8A3      		std Y+32,r30
 1934 07d4 00C0      		rjmp .L66
 1935               	.LVL194:
 1936               	.L127:
 254:../../../os/hal/lib/streams/chprintf.c ****     if (width < 0) {
 1937               		.loc 1 254 13 view .LVU431
 1938 07d6 8F01      		movw r16,r30
 196:../../../os/hal/lib/streams/chprintf.c ****       if ((s = va_arg(ap, char *)) == 0)
 1939               		.loc 1 196 14 view .LVU432
 1940 07d8 F0E2      		ldi r31,lo8(32)
 1941 07da F8A3      		std Y+32,r31
 1942 07dc 00C0      		rjmp .L66
 1943               		.cfi_endproc
 1944               	.LFE176:
 1946               		.section	.text.chprintf,"ax",@progbits
 1947               	.global	chprintf
 1949               	chprintf:
 1950               	.LVL195:
 1951               	.LFB177:
 278:../../../os/hal/lib/streams/chprintf.c **** 
 279:../../../os/hal/lib/streams/chprintf.c **** /**
 280:../../../os/hal/lib/streams/chprintf.c ****  * @brief   System formatted output function.
 281:../../../os/hal/lib/streams/chprintf.c ****  * @details This function implements a minimal @p printf() like functionality
 282:../../../os/hal/lib/streams/chprintf.c ****  *          with output on a @p BaseSequentialStream.
 283:../../../os/hal/lib/streams/chprintf.c ****  *          The general parameters format is: %[-][width|*][.precision|*][l|L]p.
 284:../../../os/hal/lib/streams/chprintf.c ****  *          The following parameter types (p) are supported:
 285:../../../os/hal/lib/streams/chprintf.c ****  *          - <b>x</b> hexadecimal integer.
 286:../../../os/hal/lib/streams/chprintf.c ****  *          - <b>X</b> hexadecimal long.
 287:../../../os/hal/lib/streams/chprintf.c ****  *          - <b>o</b> octal integer.
 288:../../../os/hal/lib/streams/chprintf.c ****  *          - <b>O</b> octal long.
 289:../../../os/hal/lib/streams/chprintf.c ****  *          - <b>d</b> decimal signed integer.
 290:../../../os/hal/lib/streams/chprintf.c ****  *          - <b>D</b> decimal signed long.
 291:../../../os/hal/lib/streams/chprintf.c ****  *          - <b>u</b> decimal unsigned integer.
 292:../../../os/hal/lib/streams/chprintf.c ****  *          - <b>U</b> decimal unsigned long.
 293:../../../os/hal/lib/streams/chprintf.c ****  *          - <b>c</b> character.
 294:../../../os/hal/lib/streams/chprintf.c ****  *          - <b>s</b> string.
 295:../../../os/hal/lib/streams/chprintf.c ****  *          .
 296:../../../os/hal/lib/streams/chprintf.c ****  *
 297:../../../os/hal/lib/streams/chprintf.c ****  * @param[in] chp       pointer to a @p BaseSequentialStream implementing object
 298:../../../os/hal/lib/streams/chprintf.c ****  * @param[in] fmt       formatting string
 299:../../../os/hal/lib/streams/chprintf.c ****  *
 300:../../../os/hal/lib/streams/chprintf.c ****  * @api
 301:../../../os/hal/lib/streams/chprintf.c ****  */
 302:../../../os/hal/lib/streams/chprintf.c **** int chprintf(BaseSequentialStream *chp, const char *fmt, ...) {
 1952               		.loc 1 302 63 is_stmt 1 view -0
 1953               		.cfi_startproc
 1954               		.loc 1 302 63 is_stmt 0 view .LVU434
 1955 0000 CF93      		push r28
 1956               	.LCFI20:
 1957               		.cfi_def_cfa_offset 3
 1958               		.cfi_offset 28, -2
 1959 0002 DF93      		push r29
 1960               	.LCFI21:
 1961               		.cfi_def_cfa_offset 4
 1962               		.cfi_offset 29, -3
 1963 0004 CDB7      		in r28,__SP_L__
 1964 0006 DEB7      		in r29,__SP_H__
 1965               	.LCFI22:
 1966               		.cfi_def_cfa_register 28
 1967               	/* prologue: function */
 1968               	/* frame size = 0 */
 1969               	/* stack size = 2 */
 1970               	.L__stack_usage = 2
 303:../../../os/hal/lib/streams/chprintf.c ****   va_list ap;
 1971               		.loc 1 303 3 is_stmt 1 view .LVU435
 304:../../../os/hal/lib/streams/chprintf.c ****   int formatted_bytes;
 1972               		.loc 1 304 3 view .LVU436
 305:../../../os/hal/lib/streams/chprintf.c **** 
 306:../../../os/hal/lib/streams/chprintf.c ****   va_start(ap, fmt);
 1973               		.loc 1 306 3 view .LVU437
 1974               	.LVL196:
 307:../../../os/hal/lib/streams/chprintf.c ****   formatted_bytes = chvprintf(chp, fmt, ap);
 1975               		.loc 1 307 3 view .LVU438
 1976               		.loc 1 307 21 is_stmt 0 view .LVU439
 1977 0008 AE01      		movw r20,r28
 1978 000a 475F      		subi r20,-9
 1979 000c 5F4F      		sbci r21,-1
 1980 000e 6F81      		ldd r22,Y+7
 1981 0010 7885      		ldd r23,Y+8
 1982 0012 8D81      		ldd r24,Y+5
 1983 0014 9E81      		ldd r25,Y+6
 1984 0016 0E94 0000 		call chvprintf
 1985               	.LVL197:
 308:../../../os/hal/lib/streams/chprintf.c ****   va_end(ap);
 1986               		.loc 1 308 3 is_stmt 1 view .LVU440
 309:../../../os/hal/lib/streams/chprintf.c **** 
 310:../../../os/hal/lib/streams/chprintf.c ****   return formatted_bytes;
 1987               		.loc 1 310 3 view .LVU441
 1988               	/* epilogue start */
 311:../../../os/hal/lib/streams/chprintf.c **** }
 1989               		.loc 1 311 1 is_stmt 0 view .LVU442
 1990 001a DF91      		pop r29
 1991 001c CF91      		pop r28
 1992 001e 0895      		ret
 1993               		.cfi_endproc
 1994               	.LFE177:
 1996               		.section	.text.chsnprintf,"ax",@progbits
 1997               	.global	chsnprintf
 1999               	chsnprintf:
 2000               	.LVL198:
 2001               	.LFB178:
 312:../../../os/hal/lib/streams/chprintf.c **** 
 313:../../../os/hal/lib/streams/chprintf.c **** /**
 314:../../../os/hal/lib/streams/chprintf.c ****  * @brief   System formatted output function.
 315:../../../os/hal/lib/streams/chprintf.c ****  * @details This function implements a minimal @p snprintf()-like functionality.
 316:../../../os/hal/lib/streams/chprintf.c ****  *          The general parameters format is: %[-][width|*][.precision|*][l|L]p.
 317:../../../os/hal/lib/streams/chprintf.c ****  *          The following parameter types (p) are supported:
 318:../../../os/hal/lib/streams/chprintf.c ****  *          - <b>x</b> hexadecimal integer.
 319:../../../os/hal/lib/streams/chprintf.c ****  *          - <b>X</b> hexadecimal long.
 320:../../../os/hal/lib/streams/chprintf.c ****  *          - <b>o</b> octal integer.
 321:../../../os/hal/lib/streams/chprintf.c ****  *          - <b>O</b> octal long.
 322:../../../os/hal/lib/streams/chprintf.c ****  *          - <b>d</b> decimal signed integer.
 323:../../../os/hal/lib/streams/chprintf.c ****  *          - <b>D</b> decimal signed long.
 324:../../../os/hal/lib/streams/chprintf.c ****  *          - <b>u</b> decimal unsigned integer.
 325:../../../os/hal/lib/streams/chprintf.c ****  *          - <b>U</b> decimal unsigned long.
 326:../../../os/hal/lib/streams/chprintf.c ****  *          - <b>c</b> character.
 327:../../../os/hal/lib/streams/chprintf.c ****  *          - <b>s</b> string.
 328:../../../os/hal/lib/streams/chprintf.c ****  *          .
 329:../../../os/hal/lib/streams/chprintf.c ****  * @post    @p str is NUL-terminated, unless @p size is 0.
 330:../../../os/hal/lib/streams/chprintf.c ****  *
 331:../../../os/hal/lib/streams/chprintf.c ****  * @param[in] str       pointer to a buffer
 332:../../../os/hal/lib/streams/chprintf.c ****  * @param[in] size      maximum size of the buffer
 333:../../../os/hal/lib/streams/chprintf.c ****  * @param[in] fmt       formatting string
 334:../../../os/hal/lib/streams/chprintf.c ****  * @return              The number of characters (excluding the
 335:../../../os/hal/lib/streams/chprintf.c ****  *                      terminating NUL byte) that would have been
 336:../../../os/hal/lib/streams/chprintf.c ****  *                      stored in @p str if there was room.
 337:../../../os/hal/lib/streams/chprintf.c ****  *
 338:../../../os/hal/lib/streams/chprintf.c ****  * @api
 339:../../../os/hal/lib/streams/chprintf.c ****  */
 340:../../../os/hal/lib/streams/chprintf.c **** int chsnprintf(char *str, size_t size, const char *fmt, ...) {
 2002               		.loc 1 340 62 is_stmt 1 view -0
 2003               		.cfi_startproc
 2004               		.loc 1 340 62 is_stmt 0 view .LVU444
 2005 0000 0F93      		push r16
 2006               	.LCFI23:
 2007               		.cfi_def_cfa_offset 3
 2008               		.cfi_offset 16, -2
 2009 0002 1F93      		push r17
 2010               	.LCFI24:
 2011               		.cfi_def_cfa_offset 4
 2012               		.cfi_offset 17, -3
 2013 0004 CF93      		push r28
 2014               	.LCFI25:
 2015               		.cfi_def_cfa_offset 5
 2016               		.cfi_offset 28, -4
 2017 0006 DF93      		push r29
 2018               	.LCFI26:
 2019               		.cfi_def_cfa_offset 6
 2020               		.cfi_offset 29, -5
 2021 0008 CDB7      		in r28,__SP_L__
 2022 000a DEB7      		in r29,__SP_H__
 2023               	.LCFI27:
 2024               		.cfi_def_cfa_register 28
 2025 000c 2A97      		sbiw r28,10
 2026               	.LCFI28:
 2027               		.cfi_def_cfa_offset 16
 2028 000e 0FB6      		in __tmp_reg__,__SREG__
 2029 0010 F894      		cli
 2030 0012 DEBF      		out __SP_H__,r29
 2031 0014 0FBE      		out __SREG__,__tmp_reg__
 2032 0016 CDBF      		out __SP_L__,r28
 2033               	/* prologue: function */
 2034               	/* frame size = 10 */
 2035               	/* stack size = 14 */
 2036               	.L__stack_usage = 14
 2037 0018 0B89      		ldd r16,Y+19
 2038 001a 1C89      		ldd r17,Y+20
 341:../../../os/hal/lib/streams/chprintf.c ****   va_list ap;
 2039               		.loc 1 341 3 is_stmt 1 view .LVU445
 342:../../../os/hal/lib/streams/chprintf.c ****   MemoryStream ms;
 2040               		.loc 1 342 3 view .LVU446
 343:../../../os/hal/lib/streams/chprintf.c ****   BaseSequentialStream *chp;
 2041               		.loc 1 343 3 view .LVU447
 344:../../../os/hal/lib/streams/chprintf.c ****   size_t size_wo_nul;
 2042               		.loc 1 344 3 view .LVU448
 345:../../../os/hal/lib/streams/chprintf.c ****   int retval;
 2043               		.loc 1 345 3 view .LVU449
 346:../../../os/hal/lib/streams/chprintf.c **** 
 347:../../../os/hal/lib/streams/chprintf.c ****   if (size > 0)
 2044               		.loc 1 347 3 view .LVU450
 2045               		.loc 1 347 6 is_stmt 0 view .LVU451
 2046 001c 0115      		cp r16,__zero_reg__
 2047 001e 1105      		cpc r17,__zero_reg__
 2048 0020 01F0      		breq .L130
 348:../../../os/hal/lib/streams/chprintf.c ****     size_wo_nul = size - 1;
 2049               		.loc 1 348 5 is_stmt 1 view .LVU452
 2050               	.LVL199:
 349:../../../os/hal/lib/streams/chprintf.c ****   else
 350:../../../os/hal/lib/streams/chprintf.c ****     size_wo_nul = 0;
 351:../../../os/hal/lib/streams/chprintf.c **** 
 352:../../../os/hal/lib/streams/chprintf.c ****   /* Memory stream object to be used as a string writer, reserving one
 353:../../../os/hal/lib/streams/chprintf.c ****      byte for the final zero.*/
 354:../../../os/hal/lib/streams/chprintf.c ****   msObjectInit(&ms, (uint8_t *)str, size_wo_nul, 0);
 2051               		.loc 1 354 3 view .LVU453
 348:../../../os/hal/lib/streams/chprintf.c ****     size_wo_nul = size - 1;
 2052               		.loc 1 348 17 is_stmt 0 view .LVU454
 2053 0022 A801      		movw r20,r16
 2054 0024 4150      		subi r20,1
 2055 0026 5109      		sbc r21,__zero_reg__
 2056               	.LVL200:
 2057               		.loc 1 354 3 view .LVU455
 2058 0028 30E0      		ldi r19,0
 2059 002a 20E0      		ldi r18,0
 2060 002c 6989      		ldd r22,Y+17
 2061 002e 7A89      		ldd r23,Y+18
 2062 0030 CE01      		movw r24,r28
 2063 0032 0196      		adiw r24,1
 2064 0034 0E94 0000 		call msObjectInit
 2065               	.LVL201:
 355:../../../os/hal/lib/streams/chprintf.c **** 
 356:../../../os/hal/lib/streams/chprintf.c ****   /* Performing the print operation using the common code.*/
 357:../../../os/hal/lib/streams/chprintf.c ****   chp = (BaseSequentialStream *)(void *)&ms;
 2066               		.loc 1 357 3 is_stmt 1 view .LVU456
 358:../../../os/hal/lib/streams/chprintf.c ****   va_start(ap, fmt);
 2067               		.loc 1 358 3 view .LVU457
 359:../../../os/hal/lib/streams/chprintf.c ****   retval = chvprintf(chp, fmt, ap);
 2068               		.loc 1 359 3 view .LVU458
 2069               		.loc 1 359 12 is_stmt 0 view .LVU459
 2070 0038 AE01      		movw r20,r28
 2071 003a 495E      		subi r20,-23
 2072 003c 5F4F      		sbci r21,-1
 2073 003e 6D89      		ldd r22,Y+21
 2074 0040 7E89      		ldd r23,Y+22
 2075 0042 CE01      		movw r24,r28
 2076 0044 0196      		adiw r24,1
 2077 0046 0E94 0000 		call chvprintf
 2078               	.LVL202:
 360:../../../os/hal/lib/streams/chprintf.c ****   va_end(ap);
 2079               		.loc 1 360 3 is_stmt 1 view .LVU460
 361:../../../os/hal/lib/streams/chprintf.c **** 
 362:../../../os/hal/lib/streams/chprintf.c ****   /* Terminate with a zero, unless size==0.*/
 363:../../../os/hal/lib/streams/chprintf.c ****   if (ms.eos < size)
 2080               		.loc 1 363 3 view .LVU461
 2081               		.loc 1 363 9 is_stmt 0 view .LVU462
 2082 004a 2F81      		ldd r18,Y+7
 2083 004c 3885      		ldd r19,Y+8
 2084               		.loc 1 363 6 view .LVU463
 2085 004e 2017      		cp r18,r16
 2086 0050 3107      		cpc r19,r17
 2087 0052 00F4      		brsh .L129
 364:../../../os/hal/lib/streams/chprintf.c ****       str[ms.eos] = 0;
 2088               		.loc 1 364 7 is_stmt 1 view .LVU464
 2089               		.loc 1 364 19 is_stmt 0 view .LVU465
 2090 0054 4989      		ldd r20,Y+17
 2091 0056 5A89      		ldd r21,Y+18
 2092 0058 240F      		add r18,r20
 2093 005a 351F      		adc r19,r21
 2094 005c F901      		movw r30,r18
 2095 005e 1082      		st Z,__zero_reg__
 365:../../../os/hal/lib/streams/chprintf.c **** 
 366:../../../os/hal/lib/streams/chprintf.c ****   /* Return number of bytes that would have been written.*/
 367:../../../os/hal/lib/streams/chprintf.c ****   return retval;
 2096               		.loc 1 367 3 is_stmt 1 view .LVU466
 2097               	.LVL203:
 2098               	.L129:
 2099               	/* epilogue start */
 368:../../../os/hal/lib/streams/chprintf.c **** }
 2100               		.loc 1 368 1 is_stmt 0 view .LVU467
 2101 0060 2A96      		adiw r28,10
 2102 0062 0FB6      		in __tmp_reg__,__SREG__
 2103 0064 F894      		cli
 2104 0066 DEBF      		out __SP_H__,r29
 2105 0068 0FBE      		out __SREG__,__tmp_reg__
 2106 006a CDBF      		out __SP_L__,r28
 2107 006c DF91      		pop r29
 2108 006e CF91      		pop r28
 2109 0070 1F91      		pop r17
 2110 0072 0F91      		pop r16
 2111 0074 0895      		ret
 2112               	.LVL204:
 2113               	.L130:
 354:../../../os/hal/lib/streams/chprintf.c **** 
 2114               		.loc 1 354 3 is_stmt 1 view .LVU468
 2115 0076 30E0      		ldi r19,0
 2116 0078 20E0      		ldi r18,0
 2117 007a 50E0      		ldi r21,0
 2118 007c 40E0      		ldi r20,0
 2119 007e 6989      		ldd r22,Y+17
 2120 0080 7A89      		ldd r23,Y+18
 2121 0082 CE01      		movw r24,r28
 2122 0084 0196      		adiw r24,1
 2123 0086 0E94 0000 		call msObjectInit
 2124               	.LVL205:
 357:../../../os/hal/lib/streams/chprintf.c ****   va_start(ap, fmt);
 2125               		.loc 1 357 3 view .LVU469
 358:../../../os/hal/lib/streams/chprintf.c ****   retval = chvprintf(chp, fmt, ap);
 2126               		.loc 1 358 3 view .LVU470
 359:../../../os/hal/lib/streams/chprintf.c ****   va_end(ap);
 2127               		.loc 1 359 3 view .LVU471
 359:../../../os/hal/lib/streams/chprintf.c ****   va_end(ap);
 2128               		.loc 1 359 12 is_stmt 0 view .LVU472
 2129 008a AE01      		movw r20,r28
 2130 008c 495E      		subi r20,-23
 2131 008e 5F4F      		sbci r21,-1
 2132 0090 6D89      		ldd r22,Y+21
 2133 0092 7E89      		ldd r23,Y+22
 2134 0094 CE01      		movw r24,r28
 2135 0096 0196      		adiw r24,1
 2136 0098 0E94 0000 		call chvprintf
 2137               	.LVL206:
 360:../../../os/hal/lib/streams/chprintf.c **** 
 2138               		.loc 1 360 3 is_stmt 1 view .LVU473
 363:../../../os/hal/lib/streams/chprintf.c ****       str[ms.eos] = 0;
 2139               		.loc 1 363 3 view .LVU474
 2140 009c 00C0      		rjmp .L129
 2141               		.cfi_endproc
 2142               	.LFE178:
 2144               		.section	.rodata.pow10,"a"
 2147               	pow10:
 2148 0000 0A        		.byte	10
 2149 0001 00        		.byte	0
 2150 0002 00        		.byte	0
 2151 0003 00        		.byte	0
 2152 0004 64        		.byte	100
 2153 0005 00        		.byte	0
 2154 0006 00        		.byte	0
 2155 0007 00        		.byte	0
 2156 0008 E8        		.byte	-24
 2157 0009 03        		.byte	3
 2158 000a 00        		.byte	0
 2159 000b 00        		.byte	0
 2160 000c 10        		.byte	16
 2161 000d 27        		.byte	39
 2162 000e 00        		.byte	0
 2163 000f 00        		.byte	0
 2164 0010 A0        		.byte	-96
 2165 0011 86        		.byte	-122
 2166 0012 01        		.byte	1
 2167 0013 00        		.byte	0
 2168 0014 40        		.byte	64
 2169 0015 42        		.byte	66
 2170 0016 0F        		.byte	15
 2171 0017 00        		.byte	0
 2172 0018 80        		.byte	-128
 2173 0019 96        		.byte	-106
 2174 001a 98        		.byte	-104
 2175 001b 00        		.byte	0
 2176 001c 00        		.byte	0
 2177 001d E1        		.byte	-31
 2178 001e F5        		.byte	-11
 2179 001f 05        		.byte	5
 2180 0020 00        		.byte	0
 2181 0021 CA        		.byte	-54
 2182 0022 9A        		.byte	-102
 2183 0023 3B        		.byte	59
 2184               		.text
 2185               	.Letext0:
 2186               		.file 2 "/usr/local/Cellar/avr-gcc/8.2.0/lib/avr-gcc/8/gcc/avr/8.2.0/include/stddef.h"
 2187               		.file 3 "/usr/local/Cellar/avr-gcc/8.2.0/avr/include/stdint.h"
 2188               		.file 4 "../../../os/common/ports/AVR/compilers/GCC/chtypes.h"
 2189               		.file 5 "../../../os/rt/include/chsystypes.h"
 2190               		.file 6 "../../../os/rt/include/chschd.h"
 2191               		.file 7 "../../../os/rt/include/chtime.h"
 2192               		.file 8 "../../../os/common/ports/AVR/chcore.h"
 2193               		.file 9 "../../../os/rt/include/chsem.h"
 2194               		.file 10 "../../../os/rt/include/chmtx.h"
 2195               		.file 11 "../../../os/rt/include/chsys.h"
 2196               		.file 12 "../../../os/rt/include/chregistry.h"
 2197               		.file 13 "../../../os/rt/include/chevents.h"
 2198               		.file 14 "../../../os/common/oslib/include/chmemcore.h"
 2199               		.file 15 "../../../os/hal/include/hal_streams.h"
 2200               		.file 16 "../../../os/hal/include/hal_queues.h"
 2201               		.file 17 "../../../os/hal/include/hal_pal.h"
 2202               		.file 18 "../../../os/hal/ports/AVR/MEGA/LLD/GPIOv1/hal_pal_lld.h"
 2203               		.file 19 "../../../os/hal/include/hal_adc.h"
 2204               		.file 20 "../../../os/hal/ports/AVR/MEGA/LLD/ADCv1/hal_adc_lld.h"
 2205               		.file 21 "../../../os/hal/include/hal_serial.h"
 2206               		.file 22 "../../../os/hal/ports/AVR/MEGA/LLD/USARTv1/hal_serial_lld.h"
 2207               		.file 23 "/usr/local/Cellar/avr-gcc/8.2.0/lib/avr-gcc/8/gcc/avr/8.2.0/include/stdarg.h"
 2208               		.file 24 "../../../os/hal/lib/streams/memstreams.h"