   1               		.file	"hal_st_lld.c"
   2               	__SP_H__ = 0x3e
   3               	__SP_L__ = 0x3d
   4               	__SREG__ = 0x3f
   5               	__tmp_reg__ = 0
   6               	__zero_reg__ = 1
   7               		.text
   8               	.Ltext0:
   9               		.cfi_sections	.debug_frame
  10               		.section	.text.__vector_11,"ax",@progbits
  11               	.global	__vector_11
  13               	__vector_11:
  14               	.LFB173:
  15               		.file 1 "../../../os/hal/ports/AVR/MEGA/LLD/TIMv1/hal_st_lld.c"
   1:../../../os/hal/ports/AVR/MEGA/LLD/TIMv1/hal_st_lld.c **** /*
   2:../../../os/hal/ports/AVR/MEGA/LLD/TIMv1/hal_st_lld.c ****     ChibiOS - Copyright (C) 2006..2018 Giovanni Di Sirio
   3:../../../os/hal/ports/AVR/MEGA/LLD/TIMv1/hal_st_lld.c **** 
   4:../../../os/hal/ports/AVR/MEGA/LLD/TIMv1/hal_st_lld.c ****     Licensed under the Apache License, Version 2.0 (the "License");
   5:../../../os/hal/ports/AVR/MEGA/LLD/TIMv1/hal_st_lld.c ****     you may not use this file except in compliance with the License.
   6:../../../os/hal/ports/AVR/MEGA/LLD/TIMv1/hal_st_lld.c ****     You may obtain a copy of the License at
   7:../../../os/hal/ports/AVR/MEGA/LLD/TIMv1/hal_st_lld.c **** 
   8:../../../os/hal/ports/AVR/MEGA/LLD/TIMv1/hal_st_lld.c ****         http://www.apache.org/licenses/LICENSE-2.0
   9:../../../os/hal/ports/AVR/MEGA/LLD/TIMv1/hal_st_lld.c **** 
  10:../../../os/hal/ports/AVR/MEGA/LLD/TIMv1/hal_st_lld.c ****     Unless required by applicable law or agreed to in writing, software
  11:../../../os/hal/ports/AVR/MEGA/LLD/TIMv1/hal_st_lld.c ****     distributed under the License is distributed on an "AS IS" BASIS,
  12:../../../os/hal/ports/AVR/MEGA/LLD/TIMv1/hal_st_lld.c ****     WITHOUT WARRANTIES OR CONDITIONS OF ANY KIND, either express or implied.
  13:../../../os/hal/ports/AVR/MEGA/LLD/TIMv1/hal_st_lld.c ****     See the License for the specific language governing permissions and
  14:../../../os/hal/ports/AVR/MEGA/LLD/TIMv1/hal_st_lld.c ****     limitations under the License.
  15:../../../os/hal/ports/AVR/MEGA/LLD/TIMv1/hal_st_lld.c **** */
  16:../../../os/hal/ports/AVR/MEGA/LLD/TIMv1/hal_st_lld.c **** 
  17:../../../os/hal/ports/AVR/MEGA/LLD/TIMv1/hal_st_lld.c **** /**
  18:../../../os/hal/ports/AVR/MEGA/LLD/TIMv1/hal_st_lld.c ****  * @file    TIMv1/hal_st_lld.c
  19:../../../os/hal/ports/AVR/MEGA/LLD/TIMv1/hal_st_lld.c ****  * @brief   AVR/MEGA ST subsystem low level driver source.
  20:../../../os/hal/ports/AVR/MEGA/LLD/TIMv1/hal_st_lld.c ****  *
  21:../../../os/hal/ports/AVR/MEGA/LLD/TIMv1/hal_st_lld.c ****  * @addtogroup ST
  22:../../../os/hal/ports/AVR/MEGA/LLD/TIMv1/hal_st_lld.c ****  * @{
  23:../../../os/hal/ports/AVR/MEGA/LLD/TIMv1/hal_st_lld.c ****  */
  24:../../../os/hal/ports/AVR/MEGA/LLD/TIMv1/hal_st_lld.c **** 
  25:../../../os/hal/ports/AVR/MEGA/LLD/TIMv1/hal_st_lld.c **** #include "hal.h"
  26:../../../os/hal/ports/AVR/MEGA/LLD/TIMv1/hal_st_lld.c **** 
  27:../../../os/hal/ports/AVR/MEGA/LLD/TIMv1/hal_st_lld.c **** #if (OSAL_ST_MODE != OSAL_ST_MODE_NONE) || defined(__DOXYGEN__)
  28:../../../os/hal/ports/AVR/MEGA/LLD/TIMv1/hal_st_lld.c **** 
  29:../../../os/hal/ports/AVR/MEGA/LLD/TIMv1/hal_st_lld.c **** /*==========================================================================*/
  30:../../../os/hal/ports/AVR/MEGA/LLD/TIMv1/hal_st_lld.c **** /* Driver local definitions.                                                */
  31:../../../os/hal/ports/AVR/MEGA/LLD/TIMv1/hal_st_lld.c **** /*==========================================================================*/
  32:../../../os/hal/ports/AVR/MEGA/LLD/TIMv1/hal_st_lld.c **** 
  33:../../../os/hal/ports/AVR/MEGA/LLD/TIMv1/hal_st_lld.c **** /**
  34:../../../os/hal/ports/AVR/MEGA/LLD/TIMv1/hal_st_lld.c ****  * @brief  Timer maximum value
  35:../../../os/hal/ports/AVR/MEGA/LLD/TIMv1/hal_st_lld.c ****  */
  36:../../../os/hal/ports/AVR/MEGA/LLD/TIMv1/hal_st_lld.c **** #define AVR_TIMER_COUNTER_MAX 255
  37:../../../os/hal/ports/AVR/MEGA/LLD/TIMv1/hal_st_lld.c **** 
  38:../../../os/hal/ports/AVR/MEGA/LLD/TIMv1/hal_st_lld.c **** /*==========================================================================*/
  39:../../../os/hal/ports/AVR/MEGA/LLD/TIMv1/hal_st_lld.c **** /* Driver exported variables.                                               */
  40:../../../os/hal/ports/AVR/MEGA/LLD/TIMv1/hal_st_lld.c **** /*==========================================================================*/
  41:../../../os/hal/ports/AVR/MEGA/LLD/TIMv1/hal_st_lld.c **** 
  42:../../../os/hal/ports/AVR/MEGA/LLD/TIMv1/hal_st_lld.c **** /*==========================================================================*/
  43:../../../os/hal/ports/AVR/MEGA/LLD/TIMv1/hal_st_lld.c **** /* Driver local types.                                                      */
  44:../../../os/hal/ports/AVR/MEGA/LLD/TIMv1/hal_st_lld.c **** /*==========================================================================*/
  45:../../../os/hal/ports/AVR/MEGA/LLD/TIMv1/hal_st_lld.c **** 
  46:../../../os/hal/ports/AVR/MEGA/LLD/TIMv1/hal_st_lld.c **** /*==========================================================================*/
  47:../../../os/hal/ports/AVR/MEGA/LLD/TIMv1/hal_st_lld.c **** /* Driver local variables and types.                                        */
  48:../../../os/hal/ports/AVR/MEGA/LLD/TIMv1/hal_st_lld.c **** /*==========================================================================*/
  49:../../../os/hal/ports/AVR/MEGA/LLD/TIMv1/hal_st_lld.c **** 
  50:../../../os/hal/ports/AVR/MEGA/LLD/TIMv1/hal_st_lld.c **** #if (OSAL_ST_MODE == OSAL_ST_MODE_PERIODIC) || defined(__DOXYGEN__)
  51:../../../os/hal/ports/AVR/MEGA/LLD/TIMv1/hal_st_lld.c **** 
  52:../../../os/hal/ports/AVR/MEGA/LLD/TIMv1/hal_st_lld.c **** /* Work out what the timer interrupt is called on this MCU. */
  53:../../../os/hal/ports/AVR/MEGA/LLD/TIMv1/hal_st_lld.c **** #ifdef TIMER0_COMPA_vect
  54:../../../os/hal/ports/AVR/MEGA/LLD/TIMv1/hal_st_lld.c ****   #define AVR_TIMER_VECT TIMER0_COMPA_vect
  55:../../../os/hal/ports/AVR/MEGA/LLD/TIMv1/hal_st_lld.c **** #elif defined(TIMER_COMPA_vect)
  56:../../../os/hal/ports/AVR/MEGA/LLD/TIMv1/hal_st_lld.c ****   #define AVR_TIMER_VECT TIMER_COMPA_vect
  57:../../../os/hal/ports/AVR/MEGA/LLD/TIMv1/hal_st_lld.c **** #elif defined(TIMER0_COMP_vect)
  58:../../../os/hal/ports/AVR/MEGA/LLD/TIMv1/hal_st_lld.c ****   #define AVR_TIMER_VECT TIMER0_COMP_vect
  59:../../../os/hal/ports/AVR/MEGA/LLD/TIMv1/hal_st_lld.c **** #else
  60:../../../os/hal/ports/AVR/MEGA/LLD/TIMv1/hal_st_lld.c ****   #error "Cannot find interrupt vector name for timer"
  61:../../../os/hal/ports/AVR/MEGA/LLD/TIMv1/hal_st_lld.c **** #endif
  62:../../../os/hal/ports/AVR/MEGA/LLD/TIMv1/hal_st_lld.c **** 
  63:../../../os/hal/ports/AVR/MEGA/LLD/TIMv1/hal_st_lld.c **** /* Find the most suitable prescaler setting for the desired OSAL_ST_FREQUENCY*/
  64:../../../os/hal/ports/AVR/MEGA/LLD/TIMv1/hal_st_lld.c **** #if ((F_CPU / OSAL_ST_FREQUENCY) <= AVR_TIMER_COUNTER_MAX)
  65:../../../os/hal/ports/AVR/MEGA/LLD/TIMv1/hal_st_lld.c **** 
  66:../../../os/hal/ports/AVR/MEGA/LLD/TIMv1/hal_st_lld.c ****   #define AVR_TIMER_PRESCALER 1
  67:../../../os/hal/ports/AVR/MEGA/LLD/TIMv1/hal_st_lld.c ****   #define AVR_TIMER_PRESCALER_BITS ((0<<CS02)|(0<<CS01)|(1<<CS00)) /* CLK  */
  68:../../../os/hal/ports/AVR/MEGA/LLD/TIMv1/hal_st_lld.c **** 
  69:../../../os/hal/ports/AVR/MEGA/LLD/TIMv1/hal_st_lld.c **** #elif ((F_CPU / OSAL_ST_FREQUENCY / 8) <= AVR_TIMER_COUNTER_MAX)
  70:../../../os/hal/ports/AVR/MEGA/LLD/TIMv1/hal_st_lld.c **** 
  71:../../../os/hal/ports/AVR/MEGA/LLD/TIMv1/hal_st_lld.c ****   #define AVR_TIMER_PRESCALER 8
  72:../../../os/hal/ports/AVR/MEGA/LLD/TIMv1/hal_st_lld.c ****   #define AVR_TIMER_PRESCALER_BITS ((0<<CS02)|(1<<CS01)|(0<<CS00)) /* CLK/8 */
  73:../../../os/hal/ports/AVR/MEGA/LLD/TIMv1/hal_st_lld.c **** 
  74:../../../os/hal/ports/AVR/MEGA/LLD/TIMv1/hal_st_lld.c **** #elif ((F_CPU / OSAL_ST_FREQUENCY / 64) <= AVR_TIMER_COUNTER_MAX)
  75:../../../os/hal/ports/AVR/MEGA/LLD/TIMv1/hal_st_lld.c **** 
  76:../../../os/hal/ports/AVR/MEGA/LLD/TIMv1/hal_st_lld.c ****   #define AVR_TIMER_PRESCALER 64
  77:../../../os/hal/ports/AVR/MEGA/LLD/TIMv1/hal_st_lld.c **** 
  78:../../../os/hal/ports/AVR/MEGA/LLD/TIMv1/hal_st_lld.c ****   #ifdef __AVR_ATmega128__
  79:../../../os/hal/ports/AVR/MEGA/LLD/TIMv1/hal_st_lld.c ****     #define AVR_TIMER_PRESCALER_BITS ((1<<CS02)|(0<<CS01)|(0<<CS00)) /* CLK/64   */
  80:../../../os/hal/ports/AVR/MEGA/LLD/TIMv1/hal_st_lld.c ****   #else
  81:../../../os/hal/ports/AVR/MEGA/LLD/TIMv1/hal_st_lld.c ****     #define AVR_TIMER_PRESCALER_BITS ((0<<CS02)|(1<<CS01)|(1<<CS00)) /* CLK/64   */
  82:../../../os/hal/ports/AVR/MEGA/LLD/TIMv1/hal_st_lld.c ****   #endif
  83:../../../os/hal/ports/AVR/MEGA/LLD/TIMv1/hal_st_lld.c **** 
  84:../../../os/hal/ports/AVR/MEGA/LLD/TIMv1/hal_st_lld.c **** #elif ((F_CPU / OSAL_ST_FREQUENCY / 256) <= AVR_TIMER_COUNTER_MAX)
  85:../../../os/hal/ports/AVR/MEGA/LLD/TIMv1/hal_st_lld.c **** 
  86:../../../os/hal/ports/AVR/MEGA/LLD/TIMv1/hal_st_lld.c ****   #define AVR_TIMER_PRESCALER 256
  87:../../../os/hal/ports/AVR/MEGA/LLD/TIMv1/hal_st_lld.c **** 
  88:../../../os/hal/ports/AVR/MEGA/LLD/TIMv1/hal_st_lld.c ****   #ifdef __AVR_ATmega128__
  89:../../../os/hal/ports/AVR/MEGA/LLD/TIMv1/hal_st_lld.c ****     #define AVR_TIMER_PRESCALER_BITS ((1<<CS02)|(1<<CS01)|(0<<CS00)) /* CLK/256  */
  90:../../../os/hal/ports/AVR/MEGA/LLD/TIMv1/hal_st_lld.c ****   #else
  91:../../../os/hal/ports/AVR/MEGA/LLD/TIMv1/hal_st_lld.c ****     #define AVR_TIMER_PRESCALER_BITS ((1<<CS02)|(0<<CS01)|(0<<CS00)) /* CLK/256  */
  92:../../../os/hal/ports/AVR/MEGA/LLD/TIMv1/hal_st_lld.c ****   #endif
  93:../../../os/hal/ports/AVR/MEGA/LLD/TIMv1/hal_st_lld.c **** 
  94:../../../os/hal/ports/AVR/MEGA/LLD/TIMv1/hal_st_lld.c **** #elif ((F_CPU / OSAL_ST_FREQUENCY / 1024) <= AVR_TIMER_COUNTER_MAX)
  95:../../../os/hal/ports/AVR/MEGA/LLD/TIMv1/hal_st_lld.c **** 
  96:../../../os/hal/ports/AVR/MEGA/LLD/TIMv1/hal_st_lld.c ****   #define AVR_TIMER_PRESCALER 1024
  97:../../../os/hal/ports/AVR/MEGA/LLD/TIMv1/hal_st_lld.c **** 
  98:../../../os/hal/ports/AVR/MEGA/LLD/TIMv1/hal_st_lld.c ****   #ifdef __AVR_ATmega128__
  99:../../../os/hal/ports/AVR/MEGA/LLD/TIMv1/hal_st_lld.c ****     #define AVR_TIMER_PRESCALER_BITS (1<<CS02)|(1<<CS01)|(1<<CS00); /* CLK/1024 */
 100:../../../os/hal/ports/AVR/MEGA/LLD/TIMv1/hal_st_lld.c ****   #else
 101:../../../os/hal/ports/AVR/MEGA/LLD/TIMv1/hal_st_lld.c ****     #define AVR_TIMER_PRESCALER_BITS (1<<CS02)|(0<<CS01)|(1<<CS00); /* CLK/1024 */
 102:../../../os/hal/ports/AVR/MEGA/LLD/TIMv1/hal_st_lld.c ****   #endif
 103:../../../os/hal/ports/AVR/MEGA/LLD/TIMv1/hal_st_lld.c **** 
 104:../../../os/hal/ports/AVR/MEGA/LLD/TIMv1/hal_st_lld.c **** #else
 105:../../../os/hal/ports/AVR/MEGA/LLD/TIMv1/hal_st_lld.c ****   #error "Frequency too low for timer, please set OSAL_ST_FREQUENCY to a higher value"
 106:../../../os/hal/ports/AVR/MEGA/LLD/TIMv1/hal_st_lld.c **** #endif
 107:../../../os/hal/ports/AVR/MEGA/LLD/TIMv1/hal_st_lld.c **** 
 108:../../../os/hal/ports/AVR/MEGA/LLD/TIMv1/hal_st_lld.c **** #define AVR_TIMER_COUNTER (F_CPU / OSAL_ST_FREQUENCY / AVR_TIMER_PRESCALER)
 109:../../../os/hal/ports/AVR/MEGA/LLD/TIMv1/hal_st_lld.c **** 
 110:../../../os/hal/ports/AVR/MEGA/LLD/TIMv1/hal_st_lld.c **** /* Test if OSAL_ST_FREQUENCY can be matched exactly using this timer. */
 111:../../../os/hal/ports/AVR/MEGA/LLD/TIMv1/hal_st_lld.c **** #define F_CPU_ (AVR_TIMER_COUNTER * AVR_TIMER_PRESCALER * OSAL_ST_FREQUENCY)
 112:../../../os/hal/ports/AVR/MEGA/LLD/TIMv1/hal_st_lld.c **** #if (F_CPU_ != F_CPU)
 113:../../../os/hal/ports/AVR/MEGA/LLD/TIMv1/hal_st_lld.c ****   #warning "OSAL_ST_FREQUENCY cannot be generated exactly using timer"
 114:../../../os/hal/ports/AVR/MEGA/LLD/TIMv1/hal_st_lld.c **** #endif
 115:../../../os/hal/ports/AVR/MEGA/LLD/TIMv1/hal_st_lld.c **** #undef F_CPU_
 116:../../../os/hal/ports/AVR/MEGA/LLD/TIMv1/hal_st_lld.c **** 
 117:../../../os/hal/ports/AVR/MEGA/LLD/TIMv1/hal_st_lld.c **** #endif /* OSAL_ST_MODE == OSAL_ST_MODE_PERIODIC */
 118:../../../os/hal/ports/AVR/MEGA/LLD/TIMv1/hal_st_lld.c **** 
 119:../../../os/hal/ports/AVR/MEGA/LLD/TIMv1/hal_st_lld.c **** #if (OSAL_ST_MODE == OSAL_ST_MODE_FREERUNNING) || defined(__DOXYGEN__)
 120:../../../os/hal/ports/AVR/MEGA/LLD/TIMv1/hal_st_lld.c **** 
 121:../../../os/hal/ports/AVR/MEGA/LLD/TIMv1/hal_st_lld.c **** /* FIXME: Prescaler is now fixed in 1024.
 122:../../../os/hal/ports/AVR/MEGA/LLD/TIMv1/hal_st_lld.c ****  *        Should add support for calculating best value according to
 123:../../../os/hal/ports/AVR/MEGA/LLD/TIMv1/hal_st_lld.c ****  *        user requested configuration.
 124:../../../os/hal/ports/AVR/MEGA/LLD/TIMv1/hal_st_lld.c ****  */
 125:../../../os/hal/ports/AVR/MEGA/LLD/TIMv1/hal_st_lld.c **** #define PRESCALER (_BV(CS12) | _BV(CS10))
 126:../../../os/hal/ports/AVR/MEGA/LLD/TIMv1/hal_st_lld.c **** 
 127:../../../os/hal/ports/AVR/MEGA/LLD/TIMv1/hal_st_lld.c **** #endif /* OSAL_ST_MODE == OSAL_ST_MODE_FREERUNNING */
 128:../../../os/hal/ports/AVR/MEGA/LLD/TIMv1/hal_st_lld.c **** 
 129:../../../os/hal/ports/AVR/MEGA/LLD/TIMv1/hal_st_lld.c **** /*==========================================================================*/
 130:../../../os/hal/ports/AVR/MEGA/LLD/TIMv1/hal_st_lld.c **** /* Driver local functions.                                                  */
 131:../../../os/hal/ports/AVR/MEGA/LLD/TIMv1/hal_st_lld.c **** /*==========================================================================*/
 132:../../../os/hal/ports/AVR/MEGA/LLD/TIMv1/hal_st_lld.c **** 
 133:../../../os/hal/ports/AVR/MEGA/LLD/TIMv1/hal_st_lld.c **** /*==========================================================================*/
 134:../../../os/hal/ports/AVR/MEGA/LLD/TIMv1/hal_st_lld.c **** /* Driver interrupt handlers.                                               */
 135:../../../os/hal/ports/AVR/MEGA/LLD/TIMv1/hal_st_lld.c **** /*==========================================================================*/
 136:../../../os/hal/ports/AVR/MEGA/LLD/TIMv1/hal_st_lld.c **** 
 137:../../../os/hal/ports/AVR/MEGA/LLD/TIMv1/hal_st_lld.c **** #if (OSAL_ST_MODE == OSAL_ST_MODE_PERIODIC) || defined(__DOXYGEN__)
 138:../../../os/hal/ports/AVR/MEGA/LLD/TIMv1/hal_st_lld.c **** 
 139:../../../os/hal/ports/AVR/MEGA/LLD/TIMv1/hal_st_lld.c **** /**
 140:../../../os/hal/ports/AVR/MEGA/LLD/TIMv1/hal_st_lld.c ****  * @brief Timer handler for periodic mode.
 141:../../../os/hal/ports/AVR/MEGA/LLD/TIMv1/hal_st_lld.c ****  */
 142:../../../os/hal/ports/AVR/MEGA/LLD/TIMv1/hal_st_lld.c **** OSAL_IRQ_HANDLER(AVR_TIMER_VECT) {
 143:../../../os/hal/ports/AVR/MEGA/LLD/TIMv1/hal_st_lld.c **** 
 144:../../../os/hal/ports/AVR/MEGA/LLD/TIMv1/hal_st_lld.c ****   OSAL_IRQ_PROLOGUE();
 145:../../../os/hal/ports/AVR/MEGA/LLD/TIMv1/hal_st_lld.c **** 
 146:../../../os/hal/ports/AVR/MEGA/LLD/TIMv1/hal_st_lld.c ****   osalSysLockFromISR();
 147:../../../os/hal/ports/AVR/MEGA/LLD/TIMv1/hal_st_lld.c ****   osalOsTimerHandlerI();
 148:../../../os/hal/ports/AVR/MEGA/LLD/TIMv1/hal_st_lld.c ****   osalSysUnlockFromISR();
 149:../../../os/hal/ports/AVR/MEGA/LLD/TIMv1/hal_st_lld.c **** 
 150:../../../os/hal/ports/AVR/MEGA/LLD/TIMv1/hal_st_lld.c ****   OSAL_IRQ_EPILOGUE();
 151:../../../os/hal/ports/AVR/MEGA/LLD/TIMv1/hal_st_lld.c **** }
 152:../../../os/hal/ports/AVR/MEGA/LLD/TIMv1/hal_st_lld.c **** 
 153:../../../os/hal/ports/AVR/MEGA/LLD/TIMv1/hal_st_lld.c **** #endif /* OSAL_ST_MODE == OSAL_ST_MODE_PERIODIC */
 154:../../../os/hal/ports/AVR/MEGA/LLD/TIMv1/hal_st_lld.c **** 
 155:../../../os/hal/ports/AVR/MEGA/LLD/TIMv1/hal_st_lld.c **** #if (OSAL_ST_MODE == OSAL_ST_MODE_FREERUNNING) || defined(__DOXYGEN__)
 156:../../../os/hal/ports/AVR/MEGA/LLD/TIMv1/hal_st_lld.c **** 
 157:../../../os/hal/ports/AVR/MEGA/LLD/TIMv1/hal_st_lld.c **** /**
 158:../../../os/hal/ports/AVR/MEGA/LLD/TIMv1/hal_st_lld.c ****  * @brief Timer handler for free running mode.
 159:../../../os/hal/ports/AVR/MEGA/LLD/TIMv1/hal_st_lld.c ****  */
 160:../../../os/hal/ports/AVR/MEGA/LLD/TIMv1/hal_st_lld.c **** OSAL_IRQ_HANDLER(TIMER1_COMPA_vect) {
  16               		.loc 1 160 37 view -0
  17               		.cfi_startproc
  18 0000 1F92      		push r1
  19               	.LCFI0:
  20               		.cfi_def_cfa_offset 3
  21               		.cfi_offset 1, -2
  22 0002 0F92      		push r0
  23               	.LCFI1:
  24               		.cfi_def_cfa_offset 4
  25               		.cfi_offset 0, -3
  26 0004 0FB6      		in r0,__SREG__
  27 0006 0F92      		push r0
  28 0008 1124      		clr __zero_reg__
  29 000a 2F93      		push r18
  30               	.LCFI2:
  31               		.cfi_def_cfa_offset 5
  32               		.cfi_offset 18, -4
  33 000c 3F93      		push r19
  34               	.LCFI3:
  35               		.cfi_def_cfa_offset 6
  36               		.cfi_offset 19, -5
  37 000e 4F93      		push r20
  38               	.LCFI4:
  39               		.cfi_def_cfa_offset 7
  40               		.cfi_offset 20, -6
  41 0010 5F93      		push r21
  42               	.LCFI5:
  43               		.cfi_def_cfa_offset 8
  44               		.cfi_offset 21, -7
  45 0012 6F93      		push r22
  46               	.LCFI6:
  47               		.cfi_def_cfa_offset 9
  48               		.cfi_offset 22, -8
  49 0014 7F93      		push r23
  50               	.LCFI7:
  51               		.cfi_def_cfa_offset 10
  52               		.cfi_offset 23, -9
  53 0016 8F93      		push r24
  54               	.LCFI8:
  55               		.cfi_def_cfa_offset 11
  56               		.cfi_offset 24, -10
  57 0018 9F93      		push r25
  58               	.LCFI9:
  59               		.cfi_def_cfa_offset 12
  60               		.cfi_offset 25, -11
  61 001a AF93      		push r26
  62               	.LCFI10:
  63               		.cfi_def_cfa_offset 13
  64               		.cfi_offset 26, -12
  65 001c BF93      		push r27
  66               	.LCFI11:
  67               		.cfi_def_cfa_offset 14
  68               		.cfi_offset 27, -13
  69 001e EF93      		push r30
  70               	.LCFI12:
  71               		.cfi_def_cfa_offset 15
  72               		.cfi_offset 30, -14
  73 0020 FF93      		push r31
  74               	.LCFI13:
  75               		.cfi_def_cfa_offset 16
  76               		.cfi_offset 31, -15
  77               	/* prologue: Signal */
  78               	/* frame size = 0 */
  79               	/* stack size = 15 */
  80               	.L__stack_usage = 15
 161:../../../os/hal/ports/AVR/MEGA/LLD/TIMv1/hal_st_lld.c **** 
 162:../../../os/hal/ports/AVR/MEGA/LLD/TIMv1/hal_st_lld.c ****   OSAL_IRQ_PROLOGUE();
  81               		.loc 1 162 3 view .LVU1
  82               		.loc 1 162 3 view .LVU2
  83 0022 81E0      		ldi r24,lo8(1)
  84 0024 8093 0000 		sts __avr_in_isr,r24
  85               		.loc 1 162 3 view .LVU3
  86               		.loc 1 162 3 view .LVU4
  87               		.loc 1 162 3 view .LVU5
  88               		.loc 1 162 3 view .LVU6
  89               		.loc 1 162 3 view .LVU7
  90               		.loc 1 162 22 view .LVU8
 163:../../../os/hal/ports/AVR/MEGA/LLD/TIMv1/hal_st_lld.c **** 
 164:../../../os/hal/ports/AVR/MEGA/LLD/TIMv1/hal_st_lld.c ****   /* TODO: reset status if required. */
 165:../../../os/hal/ports/AVR/MEGA/LLD/TIMv1/hal_st_lld.c **** 
 166:../../../os/hal/ports/AVR/MEGA/LLD/TIMv1/hal_st_lld.c ****   osalSysLockFromISR();
  91               		.loc 1 166 3 view .LVU9
  92               		.file 2 "../../../os/hal/osal/rt/osal.h"
   1:../../../os/hal/osal/rt/osal.h **** /*
   2:../../../os/hal/osal/rt/osal.h ****     ChibiOS - Copyright (C) 2006..2018 Giovanni Di Sirio
   3:../../../os/hal/osal/rt/osal.h **** 
   4:../../../os/hal/osal/rt/osal.h ****     Licensed under the Apache License, Version 2.0 (the "License");
   5:../../../os/hal/osal/rt/osal.h ****     you may not use this file except in compliance with the License.
   6:../../../os/hal/osal/rt/osal.h ****     You may obtain a copy of the License at
   7:../../../os/hal/osal/rt/osal.h **** 
   8:../../../os/hal/osal/rt/osal.h ****         http://www.apache.org/licenses/LICENSE-2.0
   9:../../../os/hal/osal/rt/osal.h **** 
  10:../../../os/hal/osal/rt/osal.h ****     Unless required by applicable law or agreed to in writing, software
  11:../../../os/hal/osal/rt/osal.h ****     distributed under the License is distributed on an "AS IS" BASIS,
  12:../../../os/hal/osal/rt/osal.h ****     WITHOUT WARRANTIES OR CONDITIONS OF ANY KIND, either express or implied.
  13:../../../os/hal/osal/rt/osal.h ****     See the License for the specific language governing permissions and
  14:../../../os/hal/osal/rt/osal.h ****     limitations under the License.
  15:../../../os/hal/osal/rt/osal.h **** */
  16:../../../os/hal/osal/rt/osal.h **** 
  17:../../../os/hal/osal/rt/osal.h **** /**
  18:../../../os/hal/osal/rt/osal.h ****  * @file    osal.h
  19:../../../os/hal/osal/rt/osal.h ****  * @brief   OSAL module header.
  20:../../../os/hal/osal/rt/osal.h ****  *
  21:../../../os/hal/osal/rt/osal.h ****  * @addtogroup OSAL
  22:../../../os/hal/osal/rt/osal.h ****  * @{
  23:../../../os/hal/osal/rt/osal.h ****  */
  24:../../../os/hal/osal/rt/osal.h **** 
  25:../../../os/hal/osal/rt/osal.h **** #ifndef OSAL_H
  26:../../../os/hal/osal/rt/osal.h **** #define OSAL_H
  27:../../../os/hal/osal/rt/osal.h **** 
  28:../../../os/hal/osal/rt/osal.h **** #include <stddef.h>
  29:../../../os/hal/osal/rt/osal.h **** #include <stdint.h>
  30:../../../os/hal/osal/rt/osal.h **** #include <stdbool.h>
  31:../../../os/hal/osal/rt/osal.h **** 
  32:../../../os/hal/osal/rt/osal.h **** #include "ch.h"
  33:../../../os/hal/osal/rt/osal.h **** 
  34:../../../os/hal/osal/rt/osal.h **** /*===========================================================================*/
  35:../../../os/hal/osal/rt/osal.h **** /* Module constants.                                                         */
  36:../../../os/hal/osal/rt/osal.h **** /*===========================================================================*/
  37:../../../os/hal/osal/rt/osal.h **** 
  38:../../../os/hal/osal/rt/osal.h **** /**
  39:../../../os/hal/osal/rt/osal.h ****  * @name    Common constants
  40:../../../os/hal/osal/rt/osal.h ****  * @{
  41:../../../os/hal/osal/rt/osal.h ****  */
  42:../../../os/hal/osal/rt/osal.h **** #if !defined(FALSE) || defined(__DOXYGEN__)
  43:../../../os/hal/osal/rt/osal.h **** #define FALSE                               0
  44:../../../os/hal/osal/rt/osal.h **** #endif
  45:../../../os/hal/osal/rt/osal.h **** 
  46:../../../os/hal/osal/rt/osal.h **** #if !defined(TRUE) || defined(__DOXYGEN__)
  47:../../../os/hal/osal/rt/osal.h **** #define TRUE                                1
  48:../../../os/hal/osal/rt/osal.h **** #endif
  49:../../../os/hal/osal/rt/osal.h **** 
  50:../../../os/hal/osal/rt/osal.h **** #define OSAL_SUCCESS                        false
  51:../../../os/hal/osal/rt/osal.h **** #define OSAL_FAILED                         true
  52:../../../os/hal/osal/rt/osal.h **** /** @} */
  53:../../../os/hal/osal/rt/osal.h **** 
  54:../../../os/hal/osal/rt/osal.h **** #if 0
  55:../../../os/hal/osal/rt/osal.h **** /**
  56:../../../os/hal/osal/rt/osal.h ****  * @name    Messages
  57:../../../os/hal/osal/rt/osal.h ****  * @{
  58:../../../os/hal/osal/rt/osal.h ****  */
  59:../../../os/hal/osal/rt/osal.h **** #define MSG_OK                              (msg_t)0
  60:../../../os/hal/osal/rt/osal.h **** #define MSG_TIMEOUT                         (msg_t)-1
  61:../../../os/hal/osal/rt/osal.h **** #define MSG_RESET                           (msg_t)-2
  62:../../../os/hal/osal/rt/osal.h **** /** @} */
  63:../../../os/hal/osal/rt/osal.h **** #endif
  64:../../../os/hal/osal/rt/osal.h **** 
  65:../../../os/hal/osal/rt/osal.h **** #if 0
  66:../../../os/hal/osal/rt/osal.h **** /**
  67:../../../os/hal/osal/rt/osal.h ****  * @name    Special time constants
  68:../../../os/hal/osal/rt/osal.h ****  * @{
  69:../../../os/hal/osal/rt/osal.h ****  */
  70:../../../os/hal/osal/rt/osal.h **** #define TIME_IMMEDIATE                      ((sysinterval_t)0)
  71:../../../os/hal/osal/rt/osal.h **** #define TIME_INFINITE                       ((sysinterval_t)-1)
  72:../../../os/hal/osal/rt/osal.h **** /** @} */
  73:../../../os/hal/osal/rt/osal.h **** #endif
  74:../../../os/hal/osal/rt/osal.h **** 
  75:../../../os/hal/osal/rt/osal.h **** /**
  76:../../../os/hal/osal/rt/osal.h ****  * @name    Systick modes.
  77:../../../os/hal/osal/rt/osal.h ****  * @{
  78:../../../os/hal/osal/rt/osal.h ****  */
  79:../../../os/hal/osal/rt/osal.h **** #define OSAL_ST_MODE_NONE                   0
  80:../../../os/hal/osal/rt/osal.h **** #define OSAL_ST_MODE_PERIODIC               1
  81:../../../os/hal/osal/rt/osal.h **** #define OSAL_ST_MODE_FREERUNNING            2
  82:../../../os/hal/osal/rt/osal.h **** /** @} */
  83:../../../os/hal/osal/rt/osal.h **** 
  84:../../../os/hal/osal/rt/osal.h **** /**
  85:../../../os/hal/osal/rt/osal.h ****  * @name    Systick parameters.
  86:../../../os/hal/osal/rt/osal.h ****  * @{
  87:../../../os/hal/osal/rt/osal.h ****  */
  88:../../../os/hal/osal/rt/osal.h **** /**
  89:../../../os/hal/osal/rt/osal.h ****  * @brief   Size in bits of the @p systick_t type.
  90:../../../os/hal/osal/rt/osal.h ****  */
  91:../../../os/hal/osal/rt/osal.h **** #define OSAL_ST_RESOLUTION                  CH_CFG_ST_RESOLUTION
  92:../../../os/hal/osal/rt/osal.h **** 
  93:../../../os/hal/osal/rt/osal.h **** /**
  94:../../../os/hal/osal/rt/osal.h ****  * @brief   Required systick frequency or resolution.
  95:../../../os/hal/osal/rt/osal.h ****  */
  96:../../../os/hal/osal/rt/osal.h **** #define OSAL_ST_FREQUENCY                   CH_CFG_ST_FREQUENCY
  97:../../../os/hal/osal/rt/osal.h **** 
  98:../../../os/hal/osal/rt/osal.h **** /**
  99:../../../os/hal/osal/rt/osal.h ****  * @brief   Systick mode required by the underlying OS.
 100:../../../os/hal/osal/rt/osal.h ****  */
 101:../../../os/hal/osal/rt/osal.h **** #if (CH_CFG_ST_TIMEDELTA == 0) || defined(__DOXYGEN__)
 102:../../../os/hal/osal/rt/osal.h **** #define OSAL_ST_MODE                        OSAL_ST_MODE_PERIODIC
 103:../../../os/hal/osal/rt/osal.h **** #else
 104:../../../os/hal/osal/rt/osal.h **** #define OSAL_ST_MODE                        OSAL_ST_MODE_FREERUNNING
 105:../../../os/hal/osal/rt/osal.h **** #endif
 106:../../../os/hal/osal/rt/osal.h **** /** @} */
 107:../../../os/hal/osal/rt/osal.h **** 
 108:../../../os/hal/osal/rt/osal.h **** /*===========================================================================*/
 109:../../../os/hal/osal/rt/osal.h **** /* Module pre-compile time settings.                                         */
 110:../../../os/hal/osal/rt/osal.h **** /*===========================================================================*/
 111:../../../os/hal/osal/rt/osal.h **** 
 112:../../../os/hal/osal/rt/osal.h **** /*===========================================================================*/
 113:../../../os/hal/osal/rt/osal.h **** /* Derived constants and error checks.                                       */
 114:../../../os/hal/osal/rt/osal.h **** /*===========================================================================*/
 115:../../../os/hal/osal/rt/osal.h **** 
 116:../../../os/hal/osal/rt/osal.h **** #if !(OSAL_ST_MODE == OSAL_ST_MODE_NONE) &&                                 \
 117:../../../os/hal/osal/rt/osal.h ****     !(OSAL_ST_MODE == OSAL_ST_MODE_PERIODIC) &&                             \
 118:../../../os/hal/osal/rt/osal.h ****     !(OSAL_ST_MODE == OSAL_ST_MODE_FREERUNNING)
 119:../../../os/hal/osal/rt/osal.h **** #error "invalid OSAL_ST_MODE setting in osal.h"
 120:../../../os/hal/osal/rt/osal.h **** #endif
 121:../../../os/hal/osal/rt/osal.h **** 
 122:../../../os/hal/osal/rt/osal.h **** #if (OSAL_ST_RESOLUTION != 16) && (OSAL_ST_RESOLUTION != 32)
 123:../../../os/hal/osal/rt/osal.h **** #error "invalid OSAL_ST_RESOLUTION, must be 16 or 32"
 124:../../../os/hal/osal/rt/osal.h **** #endif
 125:../../../os/hal/osal/rt/osal.h **** 
 126:../../../os/hal/osal/rt/osal.h **** /*===========================================================================*/
 127:../../../os/hal/osal/rt/osal.h **** /* Module data structures and types.                                         */
 128:../../../os/hal/osal/rt/osal.h **** /*===========================================================================*/
 129:../../../os/hal/osal/rt/osal.h **** 
 130:../../../os/hal/osal/rt/osal.h **** #if 0
 131:../../../os/hal/osal/rt/osal.h **** /**
 132:../../../os/hal/osal/rt/osal.h ****  * @brief   Type of a system status word.
 133:../../../os/hal/osal/rt/osal.h ****  */
 134:../../../os/hal/osal/rt/osal.h **** typedef uint32_t syssts_t;
 135:../../../os/hal/osal/rt/osal.h **** #endif
 136:../../../os/hal/osal/rt/osal.h **** 
 137:../../../os/hal/osal/rt/osal.h **** #if 0
 138:../../../os/hal/osal/rt/osal.h **** /**
 139:../../../os/hal/osal/rt/osal.h ****  * @brief   Type of a message.
 140:../../../os/hal/osal/rt/osal.h ****  */
 141:../../../os/hal/osal/rt/osal.h **** typedef int32_t msg_t;
 142:../../../os/hal/osal/rt/osal.h **** #endif
 143:../../../os/hal/osal/rt/osal.h **** 
 144:../../../os/hal/osal/rt/osal.h **** #if 0
 145:../../../os/hal/osal/rt/osal.h **** /**
 146:../../../os/hal/osal/rt/osal.h ****  * @brief   Type of system time counter.
 147:../../../os/hal/osal/rt/osal.h ****  */
 148:../../../os/hal/osal/rt/osal.h **** typedef uint32_t systime_t;
 149:../../../os/hal/osal/rt/osal.h **** #endif
 150:../../../os/hal/osal/rt/osal.h **** 
 151:../../../os/hal/osal/rt/osal.h **** #if 0
 152:../../../os/hal/osal/rt/osal.h **** /**
 153:../../../os/hal/osal/rt/osal.h ****  * @brief   Type of system time interval.
 154:../../../os/hal/osal/rt/osal.h ****  */
 155:../../../os/hal/osal/rt/osal.h **** typedef uint32_t sysinterval_t;
 156:../../../os/hal/osal/rt/osal.h **** #endif
 157:../../../os/hal/osal/rt/osal.h **** 
 158:../../../os/hal/osal/rt/osal.h **** #if 0
 159:../../../os/hal/osal/rt/osal.h **** /**
 160:../../../os/hal/osal/rt/osal.h ****  * @brief   Type of realtime counter.
 161:../../../os/hal/osal/rt/osal.h ****  */
 162:../../../os/hal/osal/rt/osal.h **** typedef uint32_t rtcnt_t;
 163:../../../os/hal/osal/rt/osal.h **** #endif
 164:../../../os/hal/osal/rt/osal.h **** 
 165:../../../os/hal/osal/rt/osal.h **** #if 0
 166:../../../os/hal/osal/rt/osal.h **** /**
 167:../../../os/hal/osal/rt/osal.h ****  * @brief   Type of a thread reference.
 168:../../../os/hal/osal/rt/osal.h ****  */
 169:../../../os/hal/osal/rt/osal.h **** typedef thread_t * thread_reference_t;
 170:../../../os/hal/osal/rt/osal.h **** #endif
 171:../../../os/hal/osal/rt/osal.h **** 
 172:../../../os/hal/osal/rt/osal.h **** #if 0
 173:../../../os/hal/osal/rt/osal.h **** /**
 174:../../../os/hal/osal/rt/osal.h ****  * @brief   Type of an event flags mask.
 175:../../../os/hal/osal/rt/osal.h ****  */
 176:../../../os/hal/osal/rt/osal.h **** typedef uint32_t eventflags_t;
 177:../../../os/hal/osal/rt/osal.h **** #endif
 178:../../../os/hal/osal/rt/osal.h **** 
 179:../../../os/hal/osal/rt/osal.h **** #if (CH_CFG_USE_EVENTS == FALSE) || defined(__DOXYGEN__)
 180:../../../os/hal/osal/rt/osal.h **** /**
 181:../../../os/hal/osal/rt/osal.h ****  * @brief   Type of an event flags object.
 182:../../../os/hal/osal/rt/osal.h ****  * @note    The content of this structure is not part of the API and should
 183:../../../os/hal/osal/rt/osal.h ****  *          not be relied upon. Implementers may define this structure in
 184:../../../os/hal/osal/rt/osal.h ****  *          an entirely different way.
 185:../../../os/hal/osal/rt/osal.h ****  * @note    Retrieval and clearing of the flags are not defined in this
 186:../../../os/hal/osal/rt/osal.h ****  *          API and are implementation-dependent.
 187:../../../os/hal/osal/rt/osal.h ****  */
 188:../../../os/hal/osal/rt/osal.h **** typedef struct event_source event_source_t;
 189:../../../os/hal/osal/rt/osal.h **** 
 190:../../../os/hal/osal/rt/osal.h **** /**
 191:../../../os/hal/osal/rt/osal.h ****  * @brief   Type of an event source callback.
 192:../../../os/hal/osal/rt/osal.h ****  * @note    This type is not part of the OSAL API and is provided
 193:../../../os/hal/osal/rt/osal.h ****  *          exclusively as an example and for convenience.
 194:../../../os/hal/osal/rt/osal.h ****  */
 195:../../../os/hal/osal/rt/osal.h **** typedef void (*eventcallback_t)(event_source_t *esp);
 196:../../../os/hal/osal/rt/osal.h **** 
 197:../../../os/hal/osal/rt/osal.h **** /**
 198:../../../os/hal/osal/rt/osal.h ****  * @brief   Events source object.
 199:../../../os/hal/osal/rt/osal.h ****  * @note    The content of this structure is not part of the API and should
 200:../../../os/hal/osal/rt/osal.h ****  *          not be relied upon. Implementers may define this structure in
 201:../../../os/hal/osal/rt/osal.h ****  *          an entirely different way.
 202:../../../os/hal/osal/rt/osal.h ****  * @note    Retrieval and clearing of the flags are not defined in this
 203:../../../os/hal/osal/rt/osal.h ****  *          API and are implementation-dependent.
 204:../../../os/hal/osal/rt/osal.h ****  */
 205:../../../os/hal/osal/rt/osal.h **** struct event_source {
 206:../../../os/hal/osal/rt/osal.h ****   volatile eventflags_t flags;      /**< @brief Stored event flags.         */
 207:../../../os/hal/osal/rt/osal.h ****   eventcallback_t       cb;         /**< @brief Event source callback.      */
 208:../../../os/hal/osal/rt/osal.h ****   void                  *param;     /**< @brief User defined field.         */
 209:../../../os/hal/osal/rt/osal.h **** };
 210:../../../os/hal/osal/rt/osal.h **** #endif /* CH_CFG_USE_EVENTS == FALSE */
 211:../../../os/hal/osal/rt/osal.h **** 
 212:../../../os/hal/osal/rt/osal.h **** /**
 213:../../../os/hal/osal/rt/osal.h ****  * @brief   Type of a mutex.
 214:../../../os/hal/osal/rt/osal.h ****  * @note    If the OS does not support mutexes or there is no OS then the
 215:../../../os/hal/osal/rt/osal.h ****  *          mechanism can be simulated.
 216:../../../os/hal/osal/rt/osal.h ****  */
 217:../../../os/hal/osal/rt/osal.h **** #if CH_CFG_USE_MUTEXES || defined(__DOXYGEN__)
 218:../../../os/hal/osal/rt/osal.h **** #elif CH_CFG_USE_SEMAPHORES
 219:../../../os/hal/osal/rt/osal.h **** typedef semaphore_t mutex_t;
 220:../../../os/hal/osal/rt/osal.h **** #else
 221:../../../os/hal/osal/rt/osal.h **** typedef uint32_t mutex_t;
 222:../../../os/hal/osal/rt/osal.h **** #endif
 223:../../../os/hal/osal/rt/osal.h **** 
 224:../../../os/hal/osal/rt/osal.h **** #if 0
 225:../../../os/hal/osal/rt/osal.h **** /**
 226:../../../os/hal/osal/rt/osal.h ****  * @brief   Type of a thread queue.
 227:../../../os/hal/osal/rt/osal.h ****  * @details A thread queue is a queue of sleeping threads, queued threads
 228:../../../os/hal/osal/rt/osal.h ****  *          can be dequeued one at time or all together.
 229:../../../os/hal/osal/rt/osal.h ****  * @note    In this implementation it is implemented as a single reference
 230:../../../os/hal/osal/rt/osal.h ****  *          because there are no real threads.
 231:../../../os/hal/osal/rt/osal.h ****  */
 232:../../../os/hal/osal/rt/osal.h **** typedef struct {
 233:../../../os/hal/osal/rt/osal.h ****   thread_reference_t    tr;
 234:../../../os/hal/osal/rt/osal.h **** } threads_queue_t;
 235:../../../os/hal/osal/rt/osal.h **** #endif
 236:../../../os/hal/osal/rt/osal.h **** 
 237:../../../os/hal/osal/rt/osal.h **** /*===========================================================================*/
 238:../../../os/hal/osal/rt/osal.h **** /* Module macros.                                                            */
 239:../../../os/hal/osal/rt/osal.h **** /*===========================================================================*/
 240:../../../os/hal/osal/rt/osal.h **** 
 241:../../../os/hal/osal/rt/osal.h **** /**
 242:../../../os/hal/osal/rt/osal.h ****  * @name    Debug related macros
 243:../../../os/hal/osal/rt/osal.h ****  * @{
 244:../../../os/hal/osal/rt/osal.h ****  */
 245:../../../os/hal/osal/rt/osal.h **** /**
 246:../../../os/hal/osal/rt/osal.h ****  * @brief   Condition assertion.
 247:../../../os/hal/osal/rt/osal.h ****  * @details If the condition check fails then the OSAL panics with a
 248:../../../os/hal/osal/rt/osal.h ****  *          message and halts.
 249:../../../os/hal/osal/rt/osal.h ****  * @note    The condition is tested only if the @p OSAL_ENABLE_ASSERTIONS
 250:../../../os/hal/osal/rt/osal.h ****  *          switch is enabled.
 251:../../../os/hal/osal/rt/osal.h ****  * @note    The remark string is not currently used except for putting a
 252:../../../os/hal/osal/rt/osal.h ****  *          comment in the code about the assertion.
 253:../../../os/hal/osal/rt/osal.h ****  *
 254:../../../os/hal/osal/rt/osal.h ****  * @param[in] c         the condition to be verified to be true
 255:../../../os/hal/osal/rt/osal.h ****  * @param[in] remark    a remark string
 256:../../../os/hal/osal/rt/osal.h ****  *
 257:../../../os/hal/osal/rt/osal.h ****  * @api
 258:../../../os/hal/osal/rt/osal.h ****  */
 259:../../../os/hal/osal/rt/osal.h **** #define osalDbgAssert(c, remark) chDbgAssert(c, remark)
 260:../../../os/hal/osal/rt/osal.h **** 
 261:../../../os/hal/osal/rt/osal.h **** /**
 262:../../../os/hal/osal/rt/osal.h ****  * @brief   Function parameters check.
 263:../../../os/hal/osal/rt/osal.h ****  * @details If the condition check fails then the OSAL panics and halts.
 264:../../../os/hal/osal/rt/osal.h ****  * @note    The condition is tested only if the @p OSAL_ENABLE_CHECKS switch
 265:../../../os/hal/osal/rt/osal.h ****  *          is enabled.
 266:../../../os/hal/osal/rt/osal.h ****  *
 267:../../../os/hal/osal/rt/osal.h ****  * @param[in] c         the condition to be verified to be true
 268:../../../os/hal/osal/rt/osal.h ****  *
 269:../../../os/hal/osal/rt/osal.h ****  * @api
 270:../../../os/hal/osal/rt/osal.h ****  */
 271:../../../os/hal/osal/rt/osal.h **** #define osalDbgCheck(c) chDbgCheck(c)
 272:../../../os/hal/osal/rt/osal.h **** 
 273:../../../os/hal/osal/rt/osal.h **** /**
 274:../../../os/hal/osal/rt/osal.h ****  * @brief   I-Class state check.
 275:../../../os/hal/osal/rt/osal.h ****  * @note    Not implemented in this simplified OSAL.
 276:../../../os/hal/osal/rt/osal.h ****  */
 277:../../../os/hal/osal/rt/osal.h **** #define osalDbgCheckClassI() chDbgCheckClassI()
 278:../../../os/hal/osal/rt/osal.h **** 
 279:../../../os/hal/osal/rt/osal.h **** /**
 280:../../../os/hal/osal/rt/osal.h ****  * @brief   S-Class state check.
 281:../../../os/hal/osal/rt/osal.h ****  * @note    Not implemented in this simplified OSAL.
 282:../../../os/hal/osal/rt/osal.h ****  */
 283:../../../os/hal/osal/rt/osal.h **** #define osalDbgCheckClassS() chDbgCheckClassS()
 284:../../../os/hal/osal/rt/osal.h **** /** @} */
 285:../../../os/hal/osal/rt/osal.h **** 
 286:../../../os/hal/osal/rt/osal.h **** /**
 287:../../../os/hal/osal/rt/osal.h ****  * @name    IRQ service routines wrappers
 288:../../../os/hal/osal/rt/osal.h ****  * @{
 289:../../../os/hal/osal/rt/osal.h ****  */
 290:../../../os/hal/osal/rt/osal.h **** /**
 291:../../../os/hal/osal/rt/osal.h ****  * @brief   Priority level verification macro.
 292:../../../os/hal/osal/rt/osal.h ****  */
 293:../../../os/hal/osal/rt/osal.h **** #define OSAL_IRQ_IS_VALID_PRIORITY(n) CH_IRQ_IS_VALID_KERNEL_PRIORITY(n)
 294:../../../os/hal/osal/rt/osal.h **** 
 295:../../../os/hal/osal/rt/osal.h **** /**
 296:../../../os/hal/osal/rt/osal.h ****  * @brief   IRQ prologue code.
 297:../../../os/hal/osal/rt/osal.h ****  * @details This macro must be inserted at the start of all IRQ handlers.
 298:../../../os/hal/osal/rt/osal.h ****  */
 299:../../../os/hal/osal/rt/osal.h **** #define OSAL_IRQ_PROLOGUE() CH_IRQ_PROLOGUE()
 300:../../../os/hal/osal/rt/osal.h **** 
 301:../../../os/hal/osal/rt/osal.h **** /**
 302:../../../os/hal/osal/rt/osal.h ****  * @brief   IRQ epilogue code.
 303:../../../os/hal/osal/rt/osal.h ****  * @details This macro must be inserted at the end of all IRQ handlers.
 304:../../../os/hal/osal/rt/osal.h ****  */
 305:../../../os/hal/osal/rt/osal.h **** #define OSAL_IRQ_EPILOGUE() CH_IRQ_EPILOGUE()
 306:../../../os/hal/osal/rt/osal.h **** 
 307:../../../os/hal/osal/rt/osal.h **** /**
 308:../../../os/hal/osal/rt/osal.h ****  * @brief   IRQ handler function declaration.
 309:../../../os/hal/osal/rt/osal.h ****  * @details This macro hides the details of an ISR function declaration.
 310:../../../os/hal/osal/rt/osal.h ****  *
 311:../../../os/hal/osal/rt/osal.h ****  * @param[in] id        a vector name as defined in @p vectors.s
 312:../../../os/hal/osal/rt/osal.h ****  */
 313:../../../os/hal/osal/rt/osal.h **** #define OSAL_IRQ_HANDLER(id) CH_IRQ_HANDLER(id)
 314:../../../os/hal/osal/rt/osal.h **** /** @} */
 315:../../../os/hal/osal/rt/osal.h **** 
 316:../../../os/hal/osal/rt/osal.h **** /**
 317:../../../os/hal/osal/rt/osal.h ****  * @name    Time conversion utilities
 318:../../../os/hal/osal/rt/osal.h ****  * @{
 319:../../../os/hal/osal/rt/osal.h ****  */
 320:../../../os/hal/osal/rt/osal.h **** /**
 321:../../../os/hal/osal/rt/osal.h ****  * @brief   Seconds to system ticks.
 322:../../../os/hal/osal/rt/osal.h ****  * @details Converts from seconds to system ticks number.
 323:../../../os/hal/osal/rt/osal.h ****  * @note    The result is rounded upward to the next tick boundary.
 324:../../../os/hal/osal/rt/osal.h ****  *
 325:../../../os/hal/osal/rt/osal.h ****  * @param[in] secs      number of seconds
 326:../../../os/hal/osal/rt/osal.h ****  * @return              The number of ticks.
 327:../../../os/hal/osal/rt/osal.h ****  *
 328:../../../os/hal/osal/rt/osal.h ****  * @api
 329:../../../os/hal/osal/rt/osal.h ****  */
 330:../../../os/hal/osal/rt/osal.h **** #define OSAL_S2I(secs) TIME_S2I(secs)
 331:../../../os/hal/osal/rt/osal.h **** 
 332:../../../os/hal/osal/rt/osal.h **** /**
 333:../../../os/hal/osal/rt/osal.h ****  * @brief   Milliseconds to system ticks.
 334:../../../os/hal/osal/rt/osal.h ****  * @details Converts from milliseconds to system ticks number.
 335:../../../os/hal/osal/rt/osal.h ****  * @note    The result is rounded upward to the next tick boundary.
 336:../../../os/hal/osal/rt/osal.h ****  *
 337:../../../os/hal/osal/rt/osal.h ****  * @param[in] msecs     number of milliseconds
 338:../../../os/hal/osal/rt/osal.h ****  * @return              The number of ticks.
 339:../../../os/hal/osal/rt/osal.h ****  *
 340:../../../os/hal/osal/rt/osal.h ****  * @api
 341:../../../os/hal/osal/rt/osal.h ****  */
 342:../../../os/hal/osal/rt/osal.h **** #define OSAL_MS2I(msecs) TIME_MS2I(msecs)
 343:../../../os/hal/osal/rt/osal.h **** 
 344:../../../os/hal/osal/rt/osal.h **** /**
 345:../../../os/hal/osal/rt/osal.h ****  * @brief   Microseconds to system ticks.
 346:../../../os/hal/osal/rt/osal.h ****  * @details Converts from microseconds to system ticks number.
 347:../../../os/hal/osal/rt/osal.h ****  * @note    The result is rounded upward to the next tick boundary.
 348:../../../os/hal/osal/rt/osal.h ****  *
 349:../../../os/hal/osal/rt/osal.h ****  * @param[in] usecs     number of microseconds
 350:../../../os/hal/osal/rt/osal.h ****  * @return              The number of ticks.
 351:../../../os/hal/osal/rt/osal.h ****  *
 352:../../../os/hal/osal/rt/osal.h ****  * @api
 353:../../../os/hal/osal/rt/osal.h ****  */
 354:../../../os/hal/osal/rt/osal.h **** #define OSAL_US2I(usecs) TIME_US2I(usecs)
 355:../../../os/hal/osal/rt/osal.h **** /** @} */
 356:../../../os/hal/osal/rt/osal.h **** 
 357:../../../os/hal/osal/rt/osal.h **** /**
 358:../../../os/hal/osal/rt/osal.h ****  * @name    Time conversion utilities for the realtime counter
 359:../../../os/hal/osal/rt/osal.h ****  * @{
 360:../../../os/hal/osal/rt/osal.h ****  */
 361:../../../os/hal/osal/rt/osal.h **** /**
 362:../../../os/hal/osal/rt/osal.h ****  * @brief   Seconds to realtime counter.
 363:../../../os/hal/osal/rt/osal.h ****  * @details Converts from seconds to realtime counter cycles.
 364:../../../os/hal/osal/rt/osal.h ****  * @note    The macro assumes that @p freq >= @p 1.
 365:../../../os/hal/osal/rt/osal.h ****  *
 366:../../../os/hal/osal/rt/osal.h ****  * @param[in] freq      clock frequency, in Hz, of the realtime counter
 367:../../../os/hal/osal/rt/osal.h ****  * @param[in] sec       number of seconds
 368:../../../os/hal/osal/rt/osal.h ****  * @return              The number of cycles.
 369:../../../os/hal/osal/rt/osal.h ****  *
 370:../../../os/hal/osal/rt/osal.h ****  * @api
 371:../../../os/hal/osal/rt/osal.h ****  */
 372:../../../os/hal/osal/rt/osal.h **** #define OSAL_S2RTC(freq, sec) S2RTC(freq, sec)
 373:../../../os/hal/osal/rt/osal.h **** 
 374:../../../os/hal/osal/rt/osal.h **** /**
 375:../../../os/hal/osal/rt/osal.h ****  * @brief   Milliseconds to realtime counter.
 376:../../../os/hal/osal/rt/osal.h ****  * @details Converts from milliseconds to realtime counter cycles.
 377:../../../os/hal/osal/rt/osal.h ****  * @note    The result is rounded upward to the next millisecond boundary.
 378:../../../os/hal/osal/rt/osal.h ****  * @note    The macro assumes that @p freq >= @p 1000.
 379:../../../os/hal/osal/rt/osal.h ****  *
 380:../../../os/hal/osal/rt/osal.h ****  * @param[in] freq      clock frequency, in Hz, of the realtime counter
 381:../../../os/hal/osal/rt/osal.h ****  * @param[in] msec      number of milliseconds
 382:../../../os/hal/osal/rt/osal.h ****  * @return              The number of cycles.
 383:../../../os/hal/osal/rt/osal.h ****  *
 384:../../../os/hal/osal/rt/osal.h ****  * @api
 385:../../../os/hal/osal/rt/osal.h ****  */
 386:../../../os/hal/osal/rt/osal.h **** #define OSAL_MS2RTC(freq, msec) MS2RTC(freq, msec)
 387:../../../os/hal/osal/rt/osal.h **** 
 388:../../../os/hal/osal/rt/osal.h **** /**
 389:../../../os/hal/osal/rt/osal.h ****  * @brief   Microseconds to realtime counter.
 390:../../../os/hal/osal/rt/osal.h ****  * @details Converts from microseconds to realtime counter cycles.
 391:../../../os/hal/osal/rt/osal.h ****  * @note    The result is rounded upward to the next microsecond boundary.
 392:../../../os/hal/osal/rt/osal.h ****  * @note    The macro assumes that @p freq >= @p 1000000.
 393:../../../os/hal/osal/rt/osal.h ****  *
 394:../../../os/hal/osal/rt/osal.h ****  * @param[in] freq      clock frequency, in Hz, of the realtime counter
 395:../../../os/hal/osal/rt/osal.h ****  * @param[in] usec      number of microseconds
 396:../../../os/hal/osal/rt/osal.h ****  * @return              The number of cycles.
 397:../../../os/hal/osal/rt/osal.h ****  *
 398:../../../os/hal/osal/rt/osal.h ****  * @api
 399:../../../os/hal/osal/rt/osal.h ****  */
 400:../../../os/hal/osal/rt/osal.h **** #define OSAL_US2RTC(freq, usec) US2RTC(freq, usec)
 401:../../../os/hal/osal/rt/osal.h **** /** @} */
 402:../../../os/hal/osal/rt/osal.h **** 
 403:../../../os/hal/osal/rt/osal.h **** /**
 404:../../../os/hal/osal/rt/osal.h ****  * @name    Sleep macros using absolute time
 405:../../../os/hal/osal/rt/osal.h ****  * @{
 406:../../../os/hal/osal/rt/osal.h ****  */
 407:../../../os/hal/osal/rt/osal.h **** /**
 408:../../../os/hal/osal/rt/osal.h ****  * @brief   Delays the invoking thread for the specified number of seconds.
 409:../../../os/hal/osal/rt/osal.h ****  * @note    The specified time is rounded up to a value allowed by the real
 410:../../../os/hal/osal/rt/osal.h ****  *          system tick clock.
 411:../../../os/hal/osal/rt/osal.h ****  * @note    The maximum specifiable value is implementation dependent.
 412:../../../os/hal/osal/rt/osal.h ****  *
 413:../../../os/hal/osal/rt/osal.h ****  * @param[in] secs      time in seconds, must be different from zero
 414:../../../os/hal/osal/rt/osal.h ****  *
 415:../../../os/hal/osal/rt/osal.h ****  * @api
 416:../../../os/hal/osal/rt/osal.h ****  */
 417:../../../os/hal/osal/rt/osal.h **** #define osalThreadSleepSeconds(secs) osalThreadSleep(OSAL_S2I(secs))
 418:../../../os/hal/osal/rt/osal.h **** 
 419:../../../os/hal/osal/rt/osal.h **** /**
 420:../../../os/hal/osal/rt/osal.h ****  * @brief   Delays the invoking thread for the specified number of
 421:../../../os/hal/osal/rt/osal.h ****  *          milliseconds.
 422:../../../os/hal/osal/rt/osal.h ****  * @note    The specified time is rounded up to a value allowed by the real
 423:../../../os/hal/osal/rt/osal.h ****  *          system tick clock.
 424:../../../os/hal/osal/rt/osal.h ****  * @note    The maximum specifiable value is implementation dependent.
 425:../../../os/hal/osal/rt/osal.h ****  *
 426:../../../os/hal/osal/rt/osal.h ****  * @param[in] msecs     time in milliseconds, must be different from zero
 427:../../../os/hal/osal/rt/osal.h ****  *
 428:../../../os/hal/osal/rt/osal.h ****  * @api
 429:../../../os/hal/osal/rt/osal.h ****  */
 430:../../../os/hal/osal/rt/osal.h **** #define osalThreadSleepMilliseconds(msecs) osalThreadSleep(OSAL_MS2I(msecs))
 431:../../../os/hal/osal/rt/osal.h **** 
 432:../../../os/hal/osal/rt/osal.h **** /**
 433:../../../os/hal/osal/rt/osal.h ****  * @brief   Delays the invoking thread for the specified number of
 434:../../../os/hal/osal/rt/osal.h ****  *          microseconds.
 435:../../../os/hal/osal/rt/osal.h ****  * @note    The specified time is rounded up to a value allowed by the real
 436:../../../os/hal/osal/rt/osal.h ****  *          system tick clock.
 437:../../../os/hal/osal/rt/osal.h ****  * @note    The maximum specifiable value is implementation dependent.
 438:../../../os/hal/osal/rt/osal.h ****  *
 439:../../../os/hal/osal/rt/osal.h ****  * @param[in] usecs     time in microseconds, must be different from zero
 440:../../../os/hal/osal/rt/osal.h ****  *
 441:../../../os/hal/osal/rt/osal.h ****  * @api
 442:../../../os/hal/osal/rt/osal.h ****  */
 443:../../../os/hal/osal/rt/osal.h **** #define osalThreadSleepMicroseconds(usecs) osalThreadSleep(OSAL_US2I(usecs))
 444:../../../os/hal/osal/rt/osal.h **** /** @} */
 445:../../../os/hal/osal/rt/osal.h **** 
 446:../../../os/hal/osal/rt/osal.h **** /*===========================================================================*/
 447:../../../os/hal/osal/rt/osal.h **** /* External declarations.                                                    */
 448:../../../os/hal/osal/rt/osal.h **** /*===========================================================================*/
 449:../../../os/hal/osal/rt/osal.h **** 
 450:../../../os/hal/osal/rt/osal.h **** #ifdef __cplusplus
 451:../../../os/hal/osal/rt/osal.h **** extern "C" {
 452:../../../os/hal/osal/rt/osal.h **** #endif
 453:../../../os/hal/osal/rt/osal.h **** 
 454:../../../os/hal/osal/rt/osal.h **** #ifdef __cplusplus
 455:../../../os/hal/osal/rt/osal.h **** }
 456:../../../os/hal/osal/rt/osal.h **** #endif
 457:../../../os/hal/osal/rt/osal.h **** 
 458:../../../os/hal/osal/rt/osal.h **** /*===========================================================================*/
 459:../../../os/hal/osal/rt/osal.h **** /* Module inline functions.                                                  */
 460:../../../os/hal/osal/rt/osal.h **** /*===========================================================================*/
 461:../../../os/hal/osal/rt/osal.h **** 
 462:../../../os/hal/osal/rt/osal.h **** /**
 463:../../../os/hal/osal/rt/osal.h ****  * @brief   OSAL module initialization.
 464:../../../os/hal/osal/rt/osal.h ****  *
 465:../../../os/hal/osal/rt/osal.h ****  * @api
 466:../../../os/hal/osal/rt/osal.h ****  */
 467:../../../os/hal/osal/rt/osal.h **** static inline void osalInit(void) {
 468:../../../os/hal/osal/rt/osal.h **** 
 469:../../../os/hal/osal/rt/osal.h **** }
 470:../../../os/hal/osal/rt/osal.h **** 
 471:../../../os/hal/osal/rt/osal.h **** /**
 472:../../../os/hal/osal/rt/osal.h ****  * @brief   System halt with error message.
 473:../../../os/hal/osal/rt/osal.h ****  *
 474:../../../os/hal/osal/rt/osal.h ****  * @param[in] reason    the halt message pointer
 475:../../../os/hal/osal/rt/osal.h ****  *
 476:../../../os/hal/osal/rt/osal.h ****  * @api
 477:../../../os/hal/osal/rt/osal.h ****  */
 478:../../../os/hal/osal/rt/osal.h **** static inline void osalSysHalt(const char *reason) {
 479:../../../os/hal/osal/rt/osal.h **** 
 480:../../../os/hal/osal/rt/osal.h ****   chSysHalt(reason);
 481:../../../os/hal/osal/rt/osal.h **** }
 482:../../../os/hal/osal/rt/osal.h **** 
 483:../../../os/hal/osal/rt/osal.h **** /**
 484:../../../os/hal/osal/rt/osal.h ****  * @brief   Disables interrupts globally.
 485:../../../os/hal/osal/rt/osal.h ****  *
 486:../../../os/hal/osal/rt/osal.h ****  * @special
 487:../../../os/hal/osal/rt/osal.h ****  */
 488:../../../os/hal/osal/rt/osal.h **** static inline void osalSysDisable(void) {
 489:../../../os/hal/osal/rt/osal.h **** 
 490:../../../os/hal/osal/rt/osal.h ****   chSysDisable();
 491:../../../os/hal/osal/rt/osal.h **** }
 492:../../../os/hal/osal/rt/osal.h **** 
 493:../../../os/hal/osal/rt/osal.h **** /**
 494:../../../os/hal/osal/rt/osal.h ****  * @brief   Enables interrupts globally.
 495:../../../os/hal/osal/rt/osal.h ****  *
 496:../../../os/hal/osal/rt/osal.h ****  * @special
 497:../../../os/hal/osal/rt/osal.h ****  */
 498:../../../os/hal/osal/rt/osal.h **** static inline void osalSysEnable(void) {
 499:../../../os/hal/osal/rt/osal.h **** 
 500:../../../os/hal/osal/rt/osal.h ****   chSysEnable();
 501:../../../os/hal/osal/rt/osal.h **** }
 502:../../../os/hal/osal/rt/osal.h **** 
 503:../../../os/hal/osal/rt/osal.h **** /**
 504:../../../os/hal/osal/rt/osal.h ****  * @brief   Enters a critical zone from thread context.
 505:../../../os/hal/osal/rt/osal.h ****  * @note    This function cannot be used for reentrant critical zones.
 506:../../../os/hal/osal/rt/osal.h ****  *
 507:../../../os/hal/osal/rt/osal.h ****  * @special
 508:../../../os/hal/osal/rt/osal.h ****  */
 509:../../../os/hal/osal/rt/osal.h **** static inline void osalSysLock(void) {
 510:../../../os/hal/osal/rt/osal.h **** 
 511:../../../os/hal/osal/rt/osal.h ****   chSysLock();
 512:../../../os/hal/osal/rt/osal.h **** }
 513:../../../os/hal/osal/rt/osal.h **** 
 514:../../../os/hal/osal/rt/osal.h **** /**
 515:../../../os/hal/osal/rt/osal.h ****  * @brief   Leaves a critical zone from thread context.
 516:../../../os/hal/osal/rt/osal.h ****  * @note    This function cannot be used for reentrant critical zones.
 517:../../../os/hal/osal/rt/osal.h ****  *
 518:../../../os/hal/osal/rt/osal.h ****  * @special
 519:../../../os/hal/osal/rt/osal.h ****  */
 520:../../../os/hal/osal/rt/osal.h **** static inline void osalSysUnlock(void) {
 521:../../../os/hal/osal/rt/osal.h **** 
 522:../../../os/hal/osal/rt/osal.h ****   chSysUnlock();
 523:../../../os/hal/osal/rt/osal.h **** }
 524:../../../os/hal/osal/rt/osal.h **** 
 525:../../../os/hal/osal/rt/osal.h **** /**
 526:../../../os/hal/osal/rt/osal.h ****  * @brief   Enters a critical zone from ISR context.
 527:../../../os/hal/osal/rt/osal.h ****  * @note    This function cannot be used for reentrant critical zones.
 528:../../../os/hal/osal/rt/osal.h ****  *
 529:../../../os/hal/osal/rt/osal.h ****  * @special
 530:../../../os/hal/osal/rt/osal.h ****  */
 531:../../../os/hal/osal/rt/osal.h **** static inline void osalSysLockFromISR(void) {
 532:../../../os/hal/osal/rt/osal.h **** 
 533:../../../os/hal/osal/rt/osal.h ****   chSysLockFromISR();
  93               		.loc 2 533 3 view .LVU10
  94               		.file 3 "../../../os/rt/include/chsys.h"
   1:../../../os/rt/include/chsys.h **** /*
   2:../../../os/rt/include/chsys.h ****     ChibiOS - Copyright (C) 2006..2018 Giovanni Di Sirio.
   3:../../../os/rt/include/chsys.h **** 
   4:../../../os/rt/include/chsys.h ****     This file is part of ChibiOS.
   5:../../../os/rt/include/chsys.h **** 
   6:../../../os/rt/include/chsys.h ****     ChibiOS is free software; you can redistribute it and/or modify
   7:../../../os/rt/include/chsys.h ****     it under the terms of the GNU General Public License as published by
   8:../../../os/rt/include/chsys.h ****     the Free Software Foundation; either version 3 of the License, or
   9:../../../os/rt/include/chsys.h ****     (at your option) any later version.
  10:../../../os/rt/include/chsys.h **** 
  11:../../../os/rt/include/chsys.h ****     ChibiOS is distributed in the hope that it will be useful,
  12:../../../os/rt/include/chsys.h ****     but WITHOUT ANY WARRANTY; without even the implied warranty of
  13:../../../os/rt/include/chsys.h ****     MERCHANTABILITY or FITNESS FOR A PARTICULAR PURPOSE.  See the
  14:../../../os/rt/include/chsys.h ****     GNU General Public License for more details.
  15:../../../os/rt/include/chsys.h **** 
  16:../../../os/rt/include/chsys.h ****     You should have received a copy of the GNU General Public License
  17:../../../os/rt/include/chsys.h ****     along with this program.  If not, see <http://www.gnu.org/licenses/>.
  18:../../../os/rt/include/chsys.h **** */
  19:../../../os/rt/include/chsys.h **** 
  20:../../../os/rt/include/chsys.h **** /**
  21:../../../os/rt/include/chsys.h ****  * @file    chsys.h
  22:../../../os/rt/include/chsys.h ****  * @brief   System related macros and structures.
  23:../../../os/rt/include/chsys.h ****  *
  24:../../../os/rt/include/chsys.h ****  * @addtogroup system
  25:../../../os/rt/include/chsys.h ****  * @{
  26:../../../os/rt/include/chsys.h ****  */
  27:../../../os/rt/include/chsys.h **** 
  28:../../../os/rt/include/chsys.h **** #ifndef CHSYS_H
  29:../../../os/rt/include/chsys.h **** #define CHSYS_H
  30:../../../os/rt/include/chsys.h **** 
  31:../../../os/rt/include/chsys.h **** /*lint -sem(chSysHalt, r_no)*/
  32:../../../os/rt/include/chsys.h **** 
  33:../../../os/rt/include/chsys.h **** /*===========================================================================*/
  34:../../../os/rt/include/chsys.h **** /* Module constants.                                                         */
  35:../../../os/rt/include/chsys.h **** /*===========================================================================*/
  36:../../../os/rt/include/chsys.h **** 
  37:../../../os/rt/include/chsys.h **** /**
  38:../../../os/rt/include/chsys.h ****  * @name    Masks of executable integrity checks.
  39:../../../os/rt/include/chsys.h ****  * @{
  40:../../../os/rt/include/chsys.h ****  */
  41:../../../os/rt/include/chsys.h **** #define CH_INTEGRITY_RLIST                  1U
  42:../../../os/rt/include/chsys.h **** #define CH_INTEGRITY_VTLIST                 2U
  43:../../../os/rt/include/chsys.h **** #define CH_INTEGRITY_REGISTRY               4U
  44:../../../os/rt/include/chsys.h **** #define CH_INTEGRITY_PORT                   8U
  45:../../../os/rt/include/chsys.h **** /** @} */
  46:../../../os/rt/include/chsys.h **** 
  47:../../../os/rt/include/chsys.h **** /*===========================================================================*/
  48:../../../os/rt/include/chsys.h **** /* Module pre-compile time settings.                                         */
  49:../../../os/rt/include/chsys.h **** /*===========================================================================*/
  50:../../../os/rt/include/chsys.h **** 
  51:../../../os/rt/include/chsys.h **** /*===========================================================================*/
  52:../../../os/rt/include/chsys.h **** /* Derived constants and error checks.                                       */
  53:../../../os/rt/include/chsys.h **** /*===========================================================================*/
  54:../../../os/rt/include/chsys.h **** 
  55:../../../os/rt/include/chsys.h **** /*===========================================================================*/
  56:../../../os/rt/include/chsys.h **** /* Module data structures and types.                                         */
  57:../../../os/rt/include/chsys.h **** /*===========================================================================*/
  58:../../../os/rt/include/chsys.h **** 
  59:../../../os/rt/include/chsys.h **** /*===========================================================================*/
  60:../../../os/rt/include/chsys.h **** /* Module macros.                                                            */
  61:../../../os/rt/include/chsys.h **** /*===========================================================================*/
  62:../../../os/rt/include/chsys.h **** 
  63:../../../os/rt/include/chsys.h **** /**
  64:../../../os/rt/include/chsys.h ****  * @name    ISRs abstraction macros
  65:../../../os/rt/include/chsys.h ****  */
  66:../../../os/rt/include/chsys.h **** /**
  67:../../../os/rt/include/chsys.h ****  * @brief   Priority level validation macro.
  68:../../../os/rt/include/chsys.h ****  * @details This macro determines if the passed value is a valid priority
  69:../../../os/rt/include/chsys.h ****  *          level for the underlying architecture.
  70:../../../os/rt/include/chsys.h ****  *
  71:../../../os/rt/include/chsys.h ****  * @param[in] prio      the priority level
  72:../../../os/rt/include/chsys.h ****  * @return              Priority range result.
  73:../../../os/rt/include/chsys.h ****  * @retval false        if the priority is invalid or if the architecture
  74:../../../os/rt/include/chsys.h ****  *                      does not support priorities.
  75:../../../os/rt/include/chsys.h ****  * @retval true         if the priority is valid.
  76:../../../os/rt/include/chsys.h ****  */
  77:../../../os/rt/include/chsys.h **** #if defined(PORT_IRQ_IS_VALID_PRIORITY) || defined(__DOXYGEN__)
  78:../../../os/rt/include/chsys.h **** #define CH_IRQ_IS_VALID_PRIORITY(prio)                                      \
  79:../../../os/rt/include/chsys.h ****   PORT_IRQ_IS_VALID_PRIORITY(prio)
  80:../../../os/rt/include/chsys.h **** #else
  81:../../../os/rt/include/chsys.h **** #define CH_IRQ_IS_VALID_PRIORITY(prio) false
  82:../../../os/rt/include/chsys.h **** #endif
  83:../../../os/rt/include/chsys.h **** 
  84:../../../os/rt/include/chsys.h **** /**
  85:../../../os/rt/include/chsys.h ****  * @brief   Priority level validation macro.
  86:../../../os/rt/include/chsys.h ****  * @details This macro determines if the passed value is a valid priority
  87:../../../os/rt/include/chsys.h ****  *          level that cannot preempt the kernel critical zone.
  88:../../../os/rt/include/chsys.h ****  *
  89:../../../os/rt/include/chsys.h ****  * @param[in] prio      the priority level
  90:../../../os/rt/include/chsys.h ****  * @return              Priority range result.
  91:../../../os/rt/include/chsys.h ****  * @retval false        if the priority is invalid or if the architecture
  92:../../../os/rt/include/chsys.h ****  *                      does not support priorities.
  93:../../../os/rt/include/chsys.h ****  * @retval true         if the priority is valid.
  94:../../../os/rt/include/chsys.h ****  */
  95:../../../os/rt/include/chsys.h **** #if defined(PORT_IRQ_IS_VALID_KERNEL_PRIORITY) || defined(__DOXYGEN__)
  96:../../../os/rt/include/chsys.h **** #define CH_IRQ_IS_VALID_KERNEL_PRIORITY(prio)                               \
  97:../../../os/rt/include/chsys.h ****   PORT_IRQ_IS_VALID_KERNEL_PRIORITY(prio)
  98:../../../os/rt/include/chsys.h **** #else
  99:../../../os/rt/include/chsys.h **** #define CH_IRQ_IS_VALID_KERNEL_PRIORITY(prio) false
 100:../../../os/rt/include/chsys.h **** #endif
 101:../../../os/rt/include/chsys.h **** 
 102:../../../os/rt/include/chsys.h **** /**
 103:../../../os/rt/include/chsys.h ****  * @brief   IRQ handler enter code.
 104:../../../os/rt/include/chsys.h ****  * @note    Usually IRQ handlers functions are also declared naked.
 105:../../../os/rt/include/chsys.h ****  * @note    On some architectures this macro can be empty.
 106:../../../os/rt/include/chsys.h ****  *
 107:../../../os/rt/include/chsys.h ****  * @special
 108:../../../os/rt/include/chsys.h ****  */
 109:../../../os/rt/include/chsys.h **** #define CH_IRQ_PROLOGUE()                                                   \
 110:../../../os/rt/include/chsys.h ****   PORT_IRQ_PROLOGUE();                                                      \
 111:../../../os/rt/include/chsys.h ****   CH_CFG_IRQ_PROLOGUE_HOOK();                                               \
 112:../../../os/rt/include/chsys.h ****   _stats_increase_irq();                                                    \
 113:../../../os/rt/include/chsys.h ****   _trace_isr_enter(__func__);                                               \
 114:../../../os/rt/include/chsys.h ****   _dbg_check_enter_isr()
 115:../../../os/rt/include/chsys.h **** 
 116:../../../os/rt/include/chsys.h **** /**
 117:../../../os/rt/include/chsys.h ****  * @brief   IRQ handler exit code.
 118:../../../os/rt/include/chsys.h ****  * @note    Usually IRQ handlers function are also declared naked.
 119:../../../os/rt/include/chsys.h ****  * @note    This macro usually performs the final reschedule by using
 120:../../../os/rt/include/chsys.h ****  *          @p chSchIsPreemptionRequired() and @p chSchDoReschedule().
 121:../../../os/rt/include/chsys.h ****  *
 122:../../../os/rt/include/chsys.h ****  * @special
 123:../../../os/rt/include/chsys.h ****  */
 124:../../../os/rt/include/chsys.h **** #define CH_IRQ_EPILOGUE()                                                   \
 125:../../../os/rt/include/chsys.h ****   _dbg_check_leave_isr();                                                   \
 126:../../../os/rt/include/chsys.h ****   _trace_isr_leave(__func__);                                               \
 127:../../../os/rt/include/chsys.h ****   CH_CFG_IRQ_EPILOGUE_HOOK();                                               \
 128:../../../os/rt/include/chsys.h ****   PORT_IRQ_EPILOGUE()
 129:../../../os/rt/include/chsys.h **** 
 130:../../../os/rt/include/chsys.h **** /**
 131:../../../os/rt/include/chsys.h ****  * @brief   Standard normal IRQ handler declaration.
 132:../../../os/rt/include/chsys.h ****  * @note    @p id can be a function name or a vector number depending on the
 133:../../../os/rt/include/chsys.h ****  *          port implementation.
 134:../../../os/rt/include/chsys.h ****  *
 135:../../../os/rt/include/chsys.h ****  * @special
 136:../../../os/rt/include/chsys.h ****  */
 137:../../../os/rt/include/chsys.h **** #define CH_IRQ_HANDLER(id) PORT_IRQ_HANDLER(id)
 138:../../../os/rt/include/chsys.h **** /** @} */
 139:../../../os/rt/include/chsys.h **** 
 140:../../../os/rt/include/chsys.h **** /**
 141:../../../os/rt/include/chsys.h ****  * @name    Fast ISRs abstraction macros
 142:../../../os/rt/include/chsys.h ****  */
 143:../../../os/rt/include/chsys.h **** /**
 144:../../../os/rt/include/chsys.h ****  * @brief   Standard fast IRQ handler declaration.
 145:../../../os/rt/include/chsys.h ****  * @note    @p id can be a function name or a vector number depending on the
 146:../../../os/rt/include/chsys.h ****  *          port implementation.
 147:../../../os/rt/include/chsys.h ****  * @note    Not all architectures support fast interrupts.
 148:../../../os/rt/include/chsys.h ****  *
 149:../../../os/rt/include/chsys.h ****  * @special
 150:../../../os/rt/include/chsys.h ****  */
 151:../../../os/rt/include/chsys.h **** #define CH_FAST_IRQ_HANDLER(id) PORT_FAST_IRQ_HANDLER(id)
 152:../../../os/rt/include/chsys.h **** /** @} */
 153:../../../os/rt/include/chsys.h **** 
 154:../../../os/rt/include/chsys.h **** /**
 155:../../../os/rt/include/chsys.h ****  * @name    Time conversion utilities for the realtime counter
 156:../../../os/rt/include/chsys.h ****  * @{
 157:../../../os/rt/include/chsys.h ****  */
 158:../../../os/rt/include/chsys.h **** /**
 159:../../../os/rt/include/chsys.h ****  * @brief   Seconds to realtime counter.
 160:../../../os/rt/include/chsys.h ****  * @details Converts from seconds to realtime counter cycles.
 161:../../../os/rt/include/chsys.h ****  * @note    The macro assumes that @p freq >= @p 1.
 162:../../../os/rt/include/chsys.h ****  *
 163:../../../os/rt/include/chsys.h ****  * @param[in] freq      clock frequency, in Hz, of the realtime counter
 164:../../../os/rt/include/chsys.h ****  * @param[in] sec       number of seconds
 165:../../../os/rt/include/chsys.h ****  * @return              The number of cycles.
 166:../../../os/rt/include/chsys.h ****  *
 167:../../../os/rt/include/chsys.h ****  * @api
 168:../../../os/rt/include/chsys.h ****  */
 169:../../../os/rt/include/chsys.h **** #define S2RTC(freq, sec) ((freq) * (sec))
 170:../../../os/rt/include/chsys.h **** 
 171:../../../os/rt/include/chsys.h **** /**
 172:../../../os/rt/include/chsys.h ****  * @brief   Milliseconds to realtime counter.
 173:../../../os/rt/include/chsys.h ****  * @details Converts from milliseconds to realtime counter cycles.
 174:../../../os/rt/include/chsys.h ****  * @note    The result is rounded upward to the next millisecond boundary.
 175:../../../os/rt/include/chsys.h ****  * @note    The macro assumes that @p freq >= @p 1000.
 176:../../../os/rt/include/chsys.h ****  *
 177:../../../os/rt/include/chsys.h ****  * @param[in] freq      clock frequency, in Hz, of the realtime counter
 178:../../../os/rt/include/chsys.h ****  * @param[in] msec      number of milliseconds
 179:../../../os/rt/include/chsys.h ****  * @return              The number of cycles.
 180:../../../os/rt/include/chsys.h ****  *
 181:../../../os/rt/include/chsys.h ****  * @api
 182:../../../os/rt/include/chsys.h ****  */
 183:../../../os/rt/include/chsys.h **** #define MS2RTC(freq, msec) (rtcnt_t)((((freq) + 999UL) / 1000UL) * (msec))
 184:../../../os/rt/include/chsys.h **** 
 185:../../../os/rt/include/chsys.h **** /**
 186:../../../os/rt/include/chsys.h ****  * @brief   Microseconds to realtime counter.
 187:../../../os/rt/include/chsys.h ****  * @details Converts from microseconds to realtime counter cycles.
 188:../../../os/rt/include/chsys.h ****  * @note    The result is rounded upward to the next microsecond boundary.
 189:../../../os/rt/include/chsys.h ****  * @note    The macro assumes that @p freq >= @p 1000000.
 190:../../../os/rt/include/chsys.h ****  *
 191:../../../os/rt/include/chsys.h ****  * @param[in] freq      clock frequency, in Hz, of the realtime counter
 192:../../../os/rt/include/chsys.h ****  * @param[in] usec      number of microseconds
 193:../../../os/rt/include/chsys.h ****  * @return              The number of cycles.
 194:../../../os/rt/include/chsys.h ****  *
 195:../../../os/rt/include/chsys.h ****  * @api
 196:../../../os/rt/include/chsys.h ****  */
 197:../../../os/rt/include/chsys.h **** #define US2RTC(freq, usec) (rtcnt_t)((((freq) + 999999UL) / 1000000UL) * (usec))
 198:../../../os/rt/include/chsys.h **** 
 199:../../../os/rt/include/chsys.h **** /**
 200:../../../os/rt/include/chsys.h ****  * @brief   Realtime counter cycles to seconds.
 201:../../../os/rt/include/chsys.h ****  * @details Converts from realtime counter cycles number to seconds.
 202:../../../os/rt/include/chsys.h ****  * @note    The result is rounded up to the next second boundary.
 203:../../../os/rt/include/chsys.h ****  * @note    The macro assumes that @p freq >= @p 1.
 204:../../../os/rt/include/chsys.h ****  *
 205:../../../os/rt/include/chsys.h ****  * @param[in] freq      clock frequency, in Hz, of the realtime counter
 206:../../../os/rt/include/chsys.h ****  * @param[in] n         number of cycles
 207:../../../os/rt/include/chsys.h ****  * @return              The number of seconds.
 208:../../../os/rt/include/chsys.h ****  *
 209:../../../os/rt/include/chsys.h ****  * @api
 210:../../../os/rt/include/chsys.h ****  */
 211:../../../os/rt/include/chsys.h **** #define RTC2S(freq, n) ((((n) - 1UL) / (freq)) + 1UL)
 212:../../../os/rt/include/chsys.h **** 
 213:../../../os/rt/include/chsys.h **** /**
 214:../../../os/rt/include/chsys.h ****  * @brief   Realtime counter cycles to milliseconds.
 215:../../../os/rt/include/chsys.h ****  * @details Converts from realtime counter cycles number to milliseconds.
 216:../../../os/rt/include/chsys.h ****  * @note    The result is rounded up to the next millisecond boundary.
 217:../../../os/rt/include/chsys.h ****  * @note    The macro assumes that @p freq >= @p 1000.
 218:../../../os/rt/include/chsys.h ****  *
 219:../../../os/rt/include/chsys.h ****  * @param[in] freq      clock frequency, in Hz, of the realtime counter
 220:../../../os/rt/include/chsys.h ****  * @param[in] n         number of cycles
 221:../../../os/rt/include/chsys.h ****  * @return              The number of milliseconds.
 222:../../../os/rt/include/chsys.h ****  *
 223:../../../os/rt/include/chsys.h ****  * @api
 224:../../../os/rt/include/chsys.h ****  */
 225:../../../os/rt/include/chsys.h **** #define RTC2MS(freq, n) ((((n) - 1UL) / ((freq) / 1000UL)) + 1UL)
 226:../../../os/rt/include/chsys.h **** 
 227:../../../os/rt/include/chsys.h **** /**
 228:../../../os/rt/include/chsys.h ****  * @brief   Realtime counter cycles to microseconds.
 229:../../../os/rt/include/chsys.h ****  * @details Converts from realtime counter cycles number to microseconds.
 230:../../../os/rt/include/chsys.h ****  * @note    The result is rounded up to the next microsecond boundary.
 231:../../../os/rt/include/chsys.h ****  * @note    The macro assumes that @p freq >= @p 1000000.
 232:../../../os/rt/include/chsys.h ****  *
 233:../../../os/rt/include/chsys.h ****  * @param[in] freq      clock frequency, in Hz, of the realtime counter
 234:../../../os/rt/include/chsys.h ****  * @param[in] n         number of cycles
 235:../../../os/rt/include/chsys.h ****  * @return              The number of microseconds.
 236:../../../os/rt/include/chsys.h ****  *
 237:../../../os/rt/include/chsys.h ****  * @api
 238:../../../os/rt/include/chsys.h ****  */
 239:../../../os/rt/include/chsys.h **** #define RTC2US(freq, n) ((((n) - 1UL) / ((freq) / 1000000UL)) + 1UL)
 240:../../../os/rt/include/chsys.h **** /** @} */
 241:../../../os/rt/include/chsys.h **** 
 242:../../../os/rt/include/chsys.h **** /**
 243:../../../os/rt/include/chsys.h ****  * @brief   Returns the current value of the system real time counter.
 244:../../../os/rt/include/chsys.h ****  * @note    This function is only available if the port layer supports the
 245:../../../os/rt/include/chsys.h ****  *          option @p PORT_SUPPORTS_RT.
 246:../../../os/rt/include/chsys.h ****  *
 247:../../../os/rt/include/chsys.h ****  * @return              The value of the system realtime counter of
 248:../../../os/rt/include/chsys.h ****  *                      type rtcnt_t.
 249:../../../os/rt/include/chsys.h ****  *
 250:../../../os/rt/include/chsys.h ****  * @xclass
 251:../../../os/rt/include/chsys.h ****  */
 252:../../../os/rt/include/chsys.h **** #if (PORT_SUPPORTS_RT == TRUE) || defined(__DOXYGEN__)
 253:../../../os/rt/include/chsys.h **** #define chSysGetRealtimeCounterX() (rtcnt_t)port_rt_get_counter_value()
 254:../../../os/rt/include/chsys.h **** #endif
 255:../../../os/rt/include/chsys.h **** 
 256:../../../os/rt/include/chsys.h **** /**
 257:../../../os/rt/include/chsys.h ****  * @brief   Performs a context switch.
 258:../../../os/rt/include/chsys.h ****  * @note    Not a user function, it is meant to be invoked by the scheduler
 259:../../../os/rt/include/chsys.h ****  *          itself or from within the port layer.
 260:../../../os/rt/include/chsys.h ****  *
 261:../../../os/rt/include/chsys.h ****  * @param[in] ntp       the thread to be switched in
 262:../../../os/rt/include/chsys.h ****  * @param[in] otp       the thread to be switched out
 263:../../../os/rt/include/chsys.h ****  *
 264:../../../os/rt/include/chsys.h ****  * @special
 265:../../../os/rt/include/chsys.h ****  */
 266:../../../os/rt/include/chsys.h **** #define chSysSwitch(ntp, otp) {                                             \
 267:../../../os/rt/include/chsys.h ****                                                                             \
 268:../../../os/rt/include/chsys.h ****   _trace_switch(ntp, otp);                                                  \
 269:../../../os/rt/include/chsys.h ****   _stats_ctxswc(ntp, otp);                                                  \
 270:../../../os/rt/include/chsys.h ****   CH_CFG_CONTEXT_SWITCH_HOOK(ntp, otp);                                     \
 271:../../../os/rt/include/chsys.h ****   port_switch(ntp, otp);                                                    \
 272:../../../os/rt/include/chsys.h **** }
 273:../../../os/rt/include/chsys.h **** 
 274:../../../os/rt/include/chsys.h **** /*===========================================================================*/
 275:../../../os/rt/include/chsys.h **** /* External declarations.                                                    */
 276:../../../os/rt/include/chsys.h **** /*===========================================================================*/
 277:../../../os/rt/include/chsys.h **** 
 278:../../../os/rt/include/chsys.h **** #if !defined(__DOXYGEN__)
 279:../../../os/rt/include/chsys.h **** extern stkalign_t ch_idle_thread_wa[];
 280:../../../os/rt/include/chsys.h **** #endif
 281:../../../os/rt/include/chsys.h **** 
 282:../../../os/rt/include/chsys.h **** #ifdef __cplusplus
 283:../../../os/rt/include/chsys.h **** extern "C" {
 284:../../../os/rt/include/chsys.h **** #endif
 285:../../../os/rt/include/chsys.h ****   void chSysInit(void);
 286:../../../os/rt/include/chsys.h ****   bool chSysIntegrityCheckI(unsigned testmask);
 287:../../../os/rt/include/chsys.h ****   void chSysTimerHandlerI(void);
 288:../../../os/rt/include/chsys.h ****   syssts_t chSysGetStatusAndLockX(void);
 289:../../../os/rt/include/chsys.h ****   void chSysRestoreStatusX(syssts_t sts);
 290:../../../os/rt/include/chsys.h **** #if PORT_SUPPORTS_RT == TRUE
 291:../../../os/rt/include/chsys.h ****   bool chSysIsCounterWithinX(rtcnt_t cnt, rtcnt_t start, rtcnt_t end);
 292:../../../os/rt/include/chsys.h ****   void chSysPolledDelayX(rtcnt_t cycles);
 293:../../../os/rt/include/chsys.h **** #endif
 294:../../../os/rt/include/chsys.h **** #ifdef __cplusplus
 295:../../../os/rt/include/chsys.h **** }
 296:../../../os/rt/include/chsys.h **** #endif
 297:../../../os/rt/include/chsys.h **** 
 298:../../../os/rt/include/chsys.h **** /*===========================================================================*/
 299:../../../os/rt/include/chsys.h **** /* Module inline functions.                                                  */
 300:../../../os/rt/include/chsys.h **** /*===========================================================================*/
 301:../../../os/rt/include/chsys.h **** 
 302:../../../os/rt/include/chsys.h **** /**
 303:../../../os/rt/include/chsys.h ****  * @brief   Raises the system interrupt priority mask to the maximum level.
 304:../../../os/rt/include/chsys.h ****  * @details All the maskable interrupt sources are disabled regardless their
 305:../../../os/rt/include/chsys.h ****  *          hardware priority.
 306:../../../os/rt/include/chsys.h ****  * @note    Do not invoke this API from within a kernel lock.
 307:../../../os/rt/include/chsys.h ****  *
 308:../../../os/rt/include/chsys.h ****  * @special
 309:../../../os/rt/include/chsys.h ****  */
 310:../../../os/rt/include/chsys.h **** static inline void chSysDisable(void) {
 311:../../../os/rt/include/chsys.h **** 
 312:../../../os/rt/include/chsys.h ****   port_disable();
 313:../../../os/rt/include/chsys.h ****   _dbg_check_disable();
 314:../../../os/rt/include/chsys.h **** }
 315:../../../os/rt/include/chsys.h **** 
 316:../../../os/rt/include/chsys.h **** /**
 317:../../../os/rt/include/chsys.h ****  * @brief   Raises the system interrupt priority mask to system level.
 318:../../../os/rt/include/chsys.h ****  * @details The interrupt sources that should not be able to preempt the kernel
 319:../../../os/rt/include/chsys.h ****  *          are disabled, interrupt sources with higher priority are still
 320:../../../os/rt/include/chsys.h ****  *          enabled.
 321:../../../os/rt/include/chsys.h ****  * @note    Do not invoke this API from within a kernel lock.
 322:../../../os/rt/include/chsys.h ****  * @note    This API is no replacement for @p chSysLock(), the @p chSysLock()
 323:../../../os/rt/include/chsys.h ****  *          could do more than just disable the interrupts.
 324:../../../os/rt/include/chsys.h ****  *
 325:../../../os/rt/include/chsys.h ****  * @special
 326:../../../os/rt/include/chsys.h ****  */
 327:../../../os/rt/include/chsys.h **** static inline void chSysSuspend(void) {
 328:../../../os/rt/include/chsys.h **** 
 329:../../../os/rt/include/chsys.h ****   port_suspend();
 330:../../../os/rt/include/chsys.h ****   _dbg_check_suspend();
 331:../../../os/rt/include/chsys.h **** }
 332:../../../os/rt/include/chsys.h **** 
 333:../../../os/rt/include/chsys.h **** /**
 334:../../../os/rt/include/chsys.h ****  * @brief   Lowers the system interrupt priority mask to user level.
 335:../../../os/rt/include/chsys.h ****  * @details All the interrupt sources are enabled.
 336:../../../os/rt/include/chsys.h ****  * @note    Do not invoke this API from within a kernel lock.
 337:../../../os/rt/include/chsys.h ****  * @note    This API is no replacement for @p chSysUnlock(), the
 338:../../../os/rt/include/chsys.h ****  *          @p chSysUnlock() could do more than just enable the interrupts.
 339:../../../os/rt/include/chsys.h ****  *
 340:../../../os/rt/include/chsys.h ****  * @special
 341:../../../os/rt/include/chsys.h ****  */
 342:../../../os/rt/include/chsys.h **** static inline void chSysEnable(void) {
 343:../../../os/rt/include/chsys.h **** 
 344:../../../os/rt/include/chsys.h ****   _dbg_check_enable();
 345:../../../os/rt/include/chsys.h ****   port_enable();
 346:../../../os/rt/include/chsys.h **** }
 347:../../../os/rt/include/chsys.h **** 
 348:../../../os/rt/include/chsys.h **** /**
 349:../../../os/rt/include/chsys.h ****  * @brief   Enters the kernel lock state.
 350:../../../os/rt/include/chsys.h ****  *
 351:../../../os/rt/include/chsys.h ****  * @special
 352:../../../os/rt/include/chsys.h ****  */
 353:../../../os/rt/include/chsys.h **** static inline void chSysLock(void) {
 354:../../../os/rt/include/chsys.h **** 
 355:../../../os/rt/include/chsys.h ****   port_lock();
 356:../../../os/rt/include/chsys.h ****   _stats_start_measure_crit_thd();
 357:../../../os/rt/include/chsys.h ****   _dbg_check_lock();
 358:../../../os/rt/include/chsys.h **** }
 359:../../../os/rt/include/chsys.h **** 
 360:../../../os/rt/include/chsys.h **** /**
 361:../../../os/rt/include/chsys.h ****  * @brief   Leaves the kernel lock state.
 362:../../../os/rt/include/chsys.h ****  *
 363:../../../os/rt/include/chsys.h ****  * @special
 364:../../../os/rt/include/chsys.h ****  */
 365:../../../os/rt/include/chsys.h **** static inline void chSysUnlock(void) {
 366:../../../os/rt/include/chsys.h **** 
 367:../../../os/rt/include/chsys.h ****   _dbg_check_unlock();
 368:../../../os/rt/include/chsys.h ****   _stats_stop_measure_crit_thd();
 369:../../../os/rt/include/chsys.h **** 
 370:../../../os/rt/include/chsys.h ****   /* The following condition can be triggered by the use of i-class functions
 371:../../../os/rt/include/chsys.h ****      in a critical section not followed by a chSchResceduleS(), this means
 372:../../../os/rt/include/chsys.h ****      that the current thread has a lower priority than the next thread in
 373:../../../os/rt/include/chsys.h ****      the ready list.*/
 374:../../../os/rt/include/chsys.h ****   chDbgAssert((ch.rlist.queue.next == (thread_t *)&ch.rlist.queue) ||
 375:../../../os/rt/include/chsys.h ****               (ch.rlist.current->prio >= ch.rlist.queue.next->prio),
 376:../../../os/rt/include/chsys.h ****               "priority order violation");
 377:../../../os/rt/include/chsys.h **** 
 378:../../../os/rt/include/chsys.h ****   port_unlock();
 379:../../../os/rt/include/chsys.h **** }
 380:../../../os/rt/include/chsys.h **** 
 381:../../../os/rt/include/chsys.h **** /**
 382:../../../os/rt/include/chsys.h ****  * @brief   Enters the kernel lock state from within an interrupt handler.
 383:../../../os/rt/include/chsys.h ****  * @note    This API may do nothing on some architectures, it is required
 384:../../../os/rt/include/chsys.h ****  *          because on ports that support preemptable interrupt handlers
 385:../../../os/rt/include/chsys.h ****  *          it is required to raise the interrupt mask to the same level of
 386:../../../os/rt/include/chsys.h ****  *          the system mutual exclusion zone.<br>
 387:../../../os/rt/include/chsys.h ****  *          It is good practice to invoke this API before invoking any I-class
 388:../../../os/rt/include/chsys.h ****  *          syscall from an interrupt handler.
 389:../../../os/rt/include/chsys.h ****  * @note    This API must be invoked exclusively from interrupt handlers.
 390:../../../os/rt/include/chsys.h ****  *
 391:../../../os/rt/include/chsys.h ****  * @special
 392:../../../os/rt/include/chsys.h ****  */
 393:../../../os/rt/include/chsys.h **** static inline void chSysLockFromISR(void) {
 394:../../../os/rt/include/chsys.h **** 
 395:../../../os/rt/include/chsys.h ****   port_lock_from_isr();
  95               		.loc 3 395 3 view .LVU11
  96               		.file 4 "../../../os/common/ports/AVR/chcore.h"
   1:../../../os/common/ports/AVR/chcore.h **** /*
   2:../../../os/common/ports/AVR/chcore.h ****     ChibiOS - Copyright (C) 2006..2018 Giovanni Di Sirio.
   3:../../../os/common/ports/AVR/chcore.h **** 
   4:../../../os/common/ports/AVR/chcore.h ****     This file is part of ChibiOS.
   5:../../../os/common/ports/AVR/chcore.h **** 
   6:../../../os/common/ports/AVR/chcore.h ****     ChibiOS is free software; you can redistribute it and/or modify
   7:../../../os/common/ports/AVR/chcore.h ****     it under the terms of the GNU General Public License as published by
   8:../../../os/common/ports/AVR/chcore.h ****     the Free Software Foundation; either version 3 of the License, or
   9:../../../os/common/ports/AVR/chcore.h ****     (at your option) any later version.
  10:../../../os/common/ports/AVR/chcore.h **** 
  11:../../../os/common/ports/AVR/chcore.h ****     ChibiOS is distributed in the hope that it will be useful,
  12:../../../os/common/ports/AVR/chcore.h ****     but WITHOUT ANY WARRANTY; without even the implied warranty of
  13:../../../os/common/ports/AVR/chcore.h ****     MERCHANTABILITY or FITNESS FOR A PARTICULAR PURPOSE.  See the
  14:../../../os/common/ports/AVR/chcore.h ****     GNU General Public License for more details.
  15:../../../os/common/ports/AVR/chcore.h **** 
  16:../../../os/common/ports/AVR/chcore.h ****     You should have received a copy of the GNU General Public License
  17:../../../os/common/ports/AVR/chcore.h ****     along with this program.  If not, see <http://www.gnu.org/licenses/>.
  18:../../../os/common/ports/AVR/chcore.h **** */
  19:../../../os/common/ports/AVR/chcore.h **** 
  20:../../../os/common/ports/AVR/chcore.h **** /**
  21:../../../os/common/ports/AVR/chcore.h ****  * @file    templates/chcore.h
  22:../../../os/common/ports/AVR/chcore.h ****  * @brief   Port related template macros and structures.
  23:../../../os/common/ports/AVR/chcore.h ****  * @details This file is a template of the system driver macros provided by
  24:../../../os/common/ports/AVR/chcore.h ****  *          a port.
  25:../../../os/common/ports/AVR/chcore.h ****  *
  26:../../../os/common/ports/AVR/chcore.h ****  * @addtogroup core
  27:../../../os/common/ports/AVR/chcore.h ****  * @{
  28:../../../os/common/ports/AVR/chcore.h ****  */
  29:../../../os/common/ports/AVR/chcore.h **** 
  30:../../../os/common/ports/AVR/chcore.h **** #ifndef CHCORE_H
  31:../../../os/common/ports/AVR/chcore.h **** #define CHCORE_H
  32:../../../os/common/ports/AVR/chcore.h **** 
  33:../../../os/common/ports/AVR/chcore.h **** #include <avr/io.h>
  34:../../../os/common/ports/AVR/chcore.h **** #include <avr/interrupt.h>
  35:../../../os/common/ports/AVR/chcore.h **** 
  36:../../../os/common/ports/AVR/chcore.h **** extern bool __avr_in_isr;
  37:../../../os/common/ports/AVR/chcore.h **** 
  38:../../../os/common/ports/AVR/chcore.h **** /*===========================================================================*/
  39:../../../os/common/ports/AVR/chcore.h **** /* Module constants.                                                         */
  40:../../../os/common/ports/AVR/chcore.h **** /*===========================================================================*/
  41:../../../os/common/ports/AVR/chcore.h **** 
  42:../../../os/common/ports/AVR/chcore.h **** /**
  43:../../../os/common/ports/AVR/chcore.h ****  * @name    Port Capabilities and Constants
  44:../../../os/common/ports/AVR/chcore.h ****  * @{
  45:../../../os/common/ports/AVR/chcore.h ****  */
  46:../../../os/common/ports/AVR/chcore.h **** /**
  47:../../../os/common/ports/AVR/chcore.h ****  * @brief   This port supports a realtime counter.
  48:../../../os/common/ports/AVR/chcore.h ****  */
  49:../../../os/common/ports/AVR/chcore.h **** #define PORT_SUPPORTS_RT                FALSE
  50:../../../os/common/ports/AVR/chcore.h **** 
  51:../../../os/common/ports/AVR/chcore.h **** /**
  52:../../../os/common/ports/AVR/chcore.h ****  * @brief   Natural alignment constant.
  53:../../../os/common/ports/AVR/chcore.h ****  * @note    It is the minimum alignment for pointer-size variables.
  54:../../../os/common/ports/AVR/chcore.h ****  */
  55:../../../os/common/ports/AVR/chcore.h **** #define PORT_NATURAL_ALIGN              1U
  56:../../../os/common/ports/AVR/chcore.h **** 
  57:../../../os/common/ports/AVR/chcore.h **** /**
  58:../../../os/common/ports/AVR/chcore.h ****  * @brief   Stack alignment constant.
  59:../../../os/common/ports/AVR/chcore.h ****  * @note    It is the alignement required for the stack pointer.
  60:../../../os/common/ports/AVR/chcore.h ****  */
  61:../../../os/common/ports/AVR/chcore.h **** #define PORT_STACK_ALIGN                1U
  62:../../../os/common/ports/AVR/chcore.h **** 
  63:../../../os/common/ports/AVR/chcore.h **** /**
  64:../../../os/common/ports/AVR/chcore.h ****  * @brief   Working Areas alignment constant.
  65:../../../os/common/ports/AVR/chcore.h ****  * @note    It is the alignment to be enforced for thread working areas.
  66:../../../os/common/ports/AVR/chcore.h ****  */
  67:../../../os/common/ports/AVR/chcore.h **** #define PORT_WORKING_AREA_ALIGN         1U
  68:../../../os/common/ports/AVR/chcore.h **** /** @} */
  69:../../../os/common/ports/AVR/chcore.h **** 
  70:../../../os/common/ports/AVR/chcore.h **** /**
  71:../../../os/common/ports/AVR/chcore.h ****  * @name    Architecture and Compiler
  72:../../../os/common/ports/AVR/chcore.h ****  * @{
  73:../../../os/common/ports/AVR/chcore.h ****  */
  74:../../../os/common/ports/AVR/chcore.h **** /**
  75:../../../os/common/ports/AVR/chcore.h ****  * @brief   Macro defining an AVR architecture.
  76:../../../os/common/ports/AVR/chcore.h ****  */
  77:../../../os/common/ports/AVR/chcore.h **** #define PORT_ARCHITECTURE_AVR
  78:../../../os/common/ports/AVR/chcore.h **** 
  79:../../../os/common/ports/AVR/chcore.h **** /**
  80:../../../os/common/ports/AVR/chcore.h ****  * @brief   Macro defining the specific AVR architecture.
  81:../../../os/common/ports/AVR/chcore.h ****  */
  82:../../../os/common/ports/AVR/chcore.h **** #define PORT_ARCHITECTURE_AVR_MEGAAVR
  83:../../../os/common/ports/AVR/chcore.h **** 
  84:../../../os/common/ports/AVR/chcore.h **** /**
  85:../../../os/common/ports/AVR/chcore.h ****  * @brief   Name of the implemented architecture.
  86:../../../os/common/ports/AVR/chcore.h ****  */
  87:../../../os/common/ports/AVR/chcore.h **** #define PORT_ARCHITECTURE_NAME          "MegaAVR"
  88:../../../os/common/ports/AVR/chcore.h **** 
  89:../../../os/common/ports/AVR/chcore.h **** /**
  90:../../../os/common/ports/AVR/chcore.h ****  * @brief   Compiler name and version.
  91:../../../os/common/ports/AVR/chcore.h ****  */
  92:../../../os/common/ports/AVR/chcore.h **** #if defined(__GNUC__) || defined(__DOXYGEN__)
  93:../../../os/common/ports/AVR/chcore.h **** #define PORT_COMPILER_NAME              "GCC " __VERSION__
  94:../../../os/common/ports/AVR/chcore.h **** 
  95:../../../os/common/ports/AVR/chcore.h **** #else
  96:../../../os/common/ports/AVR/chcore.h **** #error "unsupported compiler"
  97:../../../os/common/ports/AVR/chcore.h **** #endif
  98:../../../os/common/ports/AVR/chcore.h **** 
  99:../../../os/common/ports/AVR/chcore.h **** /**
 100:../../../os/common/ports/AVR/chcore.h ****  * @brief   Port-specific information string.
 101:../../../os/common/ports/AVR/chcore.h ****  */
 102:../../../os/common/ports/AVR/chcore.h **** #define PORT_INFO                       "None"
 103:../../../os/common/ports/AVR/chcore.h **** /** @} */
 104:../../../os/common/ports/AVR/chcore.h **** 
 105:../../../os/common/ports/AVR/chcore.h **** /*===========================================================================*/
 106:../../../os/common/ports/AVR/chcore.h **** /* Module pre-compile time settings.                                         */
 107:../../../os/common/ports/AVR/chcore.h **** /*===========================================================================*/
 108:../../../os/common/ports/AVR/chcore.h **** 
 109:../../../os/common/ports/AVR/chcore.h **** /**
 110:../../../os/common/ports/AVR/chcore.h ****  * @brief   Stack size for the system idle thread.
 111:../../../os/common/ports/AVR/chcore.h ****  * @details This size depends on the idle thread implementation, usually
 112:../../../os/common/ports/AVR/chcore.h ****  *          the idle thread should take no more space than those reserved
 113:../../../os/common/ports/AVR/chcore.h ****  *          by @p PORT_INT_REQUIRED_STACK.
 114:../../../os/common/ports/AVR/chcore.h ****  */
 115:../../../os/common/ports/AVR/chcore.h **** #if !defined(PORT_IDLE_THREAD_STACK_SIZE) || defined(__DOXYGEN__)
 116:../../../os/common/ports/AVR/chcore.h **** #define PORT_IDLE_THREAD_STACK_SIZE     8
 117:../../../os/common/ports/AVR/chcore.h **** #endif
 118:../../../os/common/ports/AVR/chcore.h **** 
 119:../../../os/common/ports/AVR/chcore.h **** /**
 120:../../../os/common/ports/AVR/chcore.h ****  * @brief   Per-thread stack overhead for interrupts servicing.
 121:../../../os/common/ports/AVR/chcore.h ****  * @details This constant is used in the calculation of the correct working
 122:../../../os/common/ports/AVR/chcore.h ****  *          area size.
 123:../../../os/common/ports/AVR/chcore.h ****  */
 124:../../../os/common/ports/AVR/chcore.h **** #if !defined(PORT_INT_REQUIRED_STACK) || defined(__DOXYGEN__)
 125:../../../os/common/ports/AVR/chcore.h **** #define PORT_INT_REQUIRED_STACK         32
 126:../../../os/common/ports/AVR/chcore.h **** #endif
 127:../../../os/common/ports/AVR/chcore.h **** 
 128:../../../os/common/ports/AVR/chcore.h **** /**
 129:../../../os/common/ports/AVR/chcore.h ****  * @brief   Enables an alternative timer implementation.
 130:../../../os/common/ports/AVR/chcore.h ****  * @details Usually the port uses a timer interface defined in the file
 131:../../../os/common/ports/AVR/chcore.h ****  *          @p chcore_timer.h, if this option is enabled then the file
 132:../../../os/common/ports/AVR/chcore.h ****  *          @p chcore_timer_alt.h is included instead.
 133:../../../os/common/ports/AVR/chcore.h ****  */
 134:../../../os/common/ports/AVR/chcore.h **** #if !defined(PORT_USE_ALT_TIMER) || defined(__DOXYGEN__)
 135:../../../os/common/ports/AVR/chcore.h **** #define PORT_USE_ALT_TIMER              FALSE
 136:../../../os/common/ports/AVR/chcore.h **** #endif
 137:../../../os/common/ports/AVR/chcore.h **** 
 138:../../../os/common/ports/AVR/chcore.h **** /**
 139:../../../os/common/ports/AVR/chcore.h ****  * @brief   Enables a "wait for interrupt" instruction in the idle loop.
 140:../../../os/common/ports/AVR/chcore.h ****  */
 141:../../../os/common/ports/AVR/chcore.h **** #if !defined(PORT_AVR_WFI_SLEEP_IDLE) || defined(__DOXYGEN__)
 142:../../../os/common/ports/AVR/chcore.h **** #define PORT_AVR_WFI_SLEEP_IDLE      FALSE
 143:../../../os/common/ports/AVR/chcore.h **** #endif
 144:../../../os/common/ports/AVR/chcore.h **** 
 145:../../../os/common/ports/AVR/chcore.h **** /*===========================================================================*/
 146:../../../os/common/ports/AVR/chcore.h **** /* Derived constants and error checks.                                       */
 147:../../../os/common/ports/AVR/chcore.h **** /*===========================================================================*/
 148:../../../os/common/ports/AVR/chcore.h **** 
 149:../../../os/common/ports/AVR/chcore.h **** /*===========================================================================*/
 150:../../../os/common/ports/AVR/chcore.h **** /* Module data structures and types.                                         */
 151:../../../os/common/ports/AVR/chcore.h **** /*===========================================================================*/
 152:../../../os/common/ports/AVR/chcore.h **** 
 153:../../../os/common/ports/AVR/chcore.h **** /* The following code is not processed when the file is included from an
 154:../../../os/common/ports/AVR/chcore.h ****    asm module.*/
 155:../../../os/common/ports/AVR/chcore.h **** #if !defined(_FROM_ASM_)
 156:../../../os/common/ports/AVR/chcore.h **** 
 157:../../../os/common/ports/AVR/chcore.h **** /**
 158:../../../os/common/ports/AVR/chcore.h ****  * @brief   Type of stack and memory alignment enforcement.
 159:../../../os/common/ports/AVR/chcore.h ****  * @note    In this architecture the stack alignment is enforced to 8 bits.
 160:../../../os/common/ports/AVR/chcore.h ****  */
 161:../../../os/common/ports/AVR/chcore.h **** typedef uint8_t stkalign_t;
 162:../../../os/common/ports/AVR/chcore.h **** 
 163:../../../os/common/ports/AVR/chcore.h **** /**
 164:../../../os/common/ports/AVR/chcore.h ****  * @brief   Interrupt saved context.
 165:../../../os/common/ports/AVR/chcore.h ****  * @details This structure represents the stack frame saved during a
 166:../../../os/common/ports/AVR/chcore.h ****  *          preemption-capable interrupt handler.
 167:../../../os/common/ports/AVR/chcore.h ****  * @note    R2 and R13 are not saved because those are assumed to be immutable
 168:../../../os/common/ports/AVR/chcore.h ****  *          during the system life cycle.
 169:../../../os/common/ports/AVR/chcore.h ****  */
 170:../../../os/common/ports/AVR/chcore.h **** struct port_extctx {
 171:../../../os/common/ports/AVR/chcore.h ****   uint8_t       _next;
 172:../../../os/common/ports/AVR/chcore.h ****   uint8_t       r31;
 173:../../../os/common/ports/AVR/chcore.h ****   uint8_t       r30;
 174:../../../os/common/ports/AVR/chcore.h ****   uint8_t       r27;
 175:../../../os/common/ports/AVR/chcore.h ****   uint8_t       r26;
 176:../../../os/common/ports/AVR/chcore.h ****   uint8_t       r25;
 177:../../../os/common/ports/AVR/chcore.h ****   uint8_t       r24;
 178:../../../os/common/ports/AVR/chcore.h ****   uint8_t       r23;
 179:../../../os/common/ports/AVR/chcore.h ****   uint8_t       r22;
 180:../../../os/common/ports/AVR/chcore.h ****   uint8_t       r21;
 181:../../../os/common/ports/AVR/chcore.h ****   uint8_t       r20;
 182:../../../os/common/ports/AVR/chcore.h ****   uint8_t       r19;
 183:../../../os/common/ports/AVR/chcore.h ****   uint8_t       r18;
 184:../../../os/common/ports/AVR/chcore.h ****   uint8_t       sr;
 185:../../../os/common/ports/AVR/chcore.h ****   uint8_t       r1;
 186:../../../os/common/ports/AVR/chcore.h ****   uint8_t       r0;
 187:../../../os/common/ports/AVR/chcore.h **** #if defined(__AVR_3_BYTE_PC__)
 188:../../../os/common/ports/AVR/chcore.h ****   uint8_t       pcx;
 189:../../../os/common/ports/AVR/chcore.h **** #endif
 190:../../../os/common/ports/AVR/chcore.h ****   uint16_t      pc;
 191:../../../os/common/ports/AVR/chcore.h **** };
 192:../../../os/common/ports/AVR/chcore.h **** 
 193:../../../os/common/ports/AVR/chcore.h **** /**
 194:../../../os/common/ports/AVR/chcore.h ****  * @brief   System saved context.
 195:../../../os/common/ports/AVR/chcore.h ****  * @details This structure represents the inner stack frame during a context
 196:../../../os/common/ports/AVR/chcore.h ****  *          switching.
 197:../../../os/common/ports/AVR/chcore.h ****  * @note    R2 and R13 are not saved because those are assumed to be immutable
 198:../../../os/common/ports/AVR/chcore.h ****  *          during the system life cycle.
 199:../../../os/common/ports/AVR/chcore.h ****  * @note    LR is stored in the caller context so it is not present in this
 200:../../../os/common/ports/AVR/chcore.h ****  *          structure.
 201:../../../os/common/ports/AVR/chcore.h ****  */
 202:../../../os/common/ports/AVR/chcore.h **** struct port_intctx {
 203:../../../os/common/ports/AVR/chcore.h ****   uint8_t       _next;
 204:../../../os/common/ports/AVR/chcore.h ****   uint8_t       r29;
 205:../../../os/common/ports/AVR/chcore.h ****   uint8_t       r28;
 206:../../../os/common/ports/AVR/chcore.h ****   uint8_t       r17;
 207:../../../os/common/ports/AVR/chcore.h ****   uint8_t       r16;
 208:../../../os/common/ports/AVR/chcore.h ****   uint8_t       r15;
 209:../../../os/common/ports/AVR/chcore.h ****   uint8_t       r14;
 210:../../../os/common/ports/AVR/chcore.h ****   uint8_t       r13;
 211:../../../os/common/ports/AVR/chcore.h ****   uint8_t       r12;
 212:../../../os/common/ports/AVR/chcore.h ****   uint8_t       r11;
 213:../../../os/common/ports/AVR/chcore.h ****   uint8_t       r10;
 214:../../../os/common/ports/AVR/chcore.h ****   uint8_t       r9;
 215:../../../os/common/ports/AVR/chcore.h ****   uint8_t       r8;
 216:../../../os/common/ports/AVR/chcore.h ****   uint8_t       r7;
 217:../../../os/common/ports/AVR/chcore.h ****   uint8_t       r6;
 218:../../../os/common/ports/AVR/chcore.h ****   uint8_t       r5;
 219:../../../os/common/ports/AVR/chcore.h ****   uint8_t       r4;
 220:../../../os/common/ports/AVR/chcore.h ****   uint8_t       r3;
 221:../../../os/common/ports/AVR/chcore.h ****   uint8_t       r2;
 222:../../../os/common/ports/AVR/chcore.h **** #if defined(__AVR_3_BYTE_PC__)
 223:../../../os/common/ports/AVR/chcore.h ****   uint8_t       pcx;
 224:../../../os/common/ports/AVR/chcore.h **** #endif
 225:../../../os/common/ports/AVR/chcore.h ****   uint8_t       pcl;
 226:../../../os/common/ports/AVR/chcore.h ****   uint8_t       pch;
 227:../../../os/common/ports/AVR/chcore.h **** };
 228:../../../os/common/ports/AVR/chcore.h **** 
 229:../../../os/common/ports/AVR/chcore.h **** /**
 230:../../../os/common/ports/AVR/chcore.h ****  * @brief   Platform dependent part of the @p thread_t structure.
 231:../../../os/common/ports/AVR/chcore.h ****  * @details This structure usually contains just the saved stack pointer
 232:../../../os/common/ports/AVR/chcore.h ****  *          defined as a pointer to a @p port_intctx structure.
 233:../../../os/common/ports/AVR/chcore.h ****  */
 234:../../../os/common/ports/AVR/chcore.h **** struct port_context {
 235:../../../os/common/ports/AVR/chcore.h ****   struct port_intctx *sp;
 236:../../../os/common/ports/AVR/chcore.h **** };
 237:../../../os/common/ports/AVR/chcore.h **** 
 238:../../../os/common/ports/AVR/chcore.h **** #endif /* !defined(_FROM_ASM_) */
 239:../../../os/common/ports/AVR/chcore.h **** 
 240:../../../os/common/ports/AVR/chcore.h **** /*===========================================================================*/
 241:../../../os/common/ports/AVR/chcore.h **** /* Module macros.                                                            */
 242:../../../os/common/ports/AVR/chcore.h **** /*===========================================================================*/
 243:../../../os/common/ports/AVR/chcore.h **** 
 244:../../../os/common/ports/AVR/chcore.h **** /**
 245:../../../os/common/ports/AVR/chcore.h ****  * @brief   Platform dependent part of the @p chThdCreateI() API.
 246:../../../os/common/ports/AVR/chcore.h ****  * @details This code usually setup the context switching frame represented
 247:../../../os/common/ports/AVR/chcore.h ****  *          by an @p port_intctx structure.
 248:../../../os/common/ports/AVR/chcore.h ****  */
 249:../../../os/common/ports/AVR/chcore.h **** #if defined(__AVR_3_BYTE_PC__) || defined(__DOXYGEN__)
 250:../../../os/common/ports/AVR/chcore.h **** #define PORT_SETUP_CONTEXT(tp, wbase, wtop, pf, arg) {                      \
 251:../../../os/common/ports/AVR/chcore.h ****   tp->ctx.sp = (struct port_intctx *)((uint8_t *)(wtop) -                   \
 252:../../../os/common/ports/AVR/chcore.h ****                                       sizeof(struct port_intctx));          \
 253:../../../os/common/ports/AVR/chcore.h ****   tp->ctx.sp->r2  = (uint8_t)(0xff & (uint16_t)pf);                         \
 254:../../../os/common/ports/AVR/chcore.h ****   tp->ctx.sp->r3  = (uint8_t)((uint16_t)(pf) >> 8);                         \
 255:../../../os/common/ports/AVR/chcore.h ****   tp->ctx.sp->r4  = (uint8_t)(0xff & (uint16_t)arg);                        \
 256:../../../os/common/ports/AVR/chcore.h ****   tp->ctx.sp->r5  = (uint8_t)((uint16_t)(arg) >> 8);                        \
 257:../../../os/common/ports/AVR/chcore.h ****   tp->ctx.sp->pcx = (uint8_t)0;                                             \
 258:../../../os/common/ports/AVR/chcore.h ****   tp->ctx.sp->pcl = (uint16_t)_port_thread_start >> 8;                      \
 259:../../../os/common/ports/AVR/chcore.h ****   tp->ctx.sp->pch = (uint8_t)(0xff & (uint16_t)_port_thread_start);         \
 260:../../../os/common/ports/AVR/chcore.h **** }
 261:../../../os/common/ports/AVR/chcore.h **** #else /* !__AVR_3_BYTE_PC__ */
 262:../../../os/common/ports/AVR/chcore.h **** #define PORT_SETUP_CONTEXT(tp, wbase, wtop, pf, arg) {                      \
 263:../../../os/common/ports/AVR/chcore.h ****   tp->ctx.sp = (struct port_intctx *)((uint8_t *)(wtop) -                   \
 264:../../../os/common/ports/AVR/chcore.h ****                                       sizeof(struct port_intctx));          \
 265:../../../os/common/ports/AVR/chcore.h ****   tp->ctx.sp->r2  = (uint8_t)(0xff & (uint16_t)pf);                         \
 266:../../../os/common/ports/AVR/chcore.h ****   tp->ctx.sp->r3  = (uint8_t)((uint16_t)(pf) >> 8);                         \
 267:../../../os/common/ports/AVR/chcore.h ****   tp->ctx.sp->r4  = (uint8_t)(0xff & (uint16_t)arg);                        \
 268:../../../os/common/ports/AVR/chcore.h ****   tp->ctx.sp->r5  = (uint8_t)((uint16_t)(arg) >> 8);                        \
 269:../../../os/common/ports/AVR/chcore.h ****   tp->ctx.sp->pcl = (uint16_t)_port_thread_start >> 8;                      \
 270:../../../os/common/ports/AVR/chcore.h ****   tp->ctx.sp->pch = (uint8_t)(0xff & (uint16_t)_port_thread_start);         \
 271:../../../os/common/ports/AVR/chcore.h **** }
 272:../../../os/common/ports/AVR/chcore.h **** #endif /* !__AVR_3_BYTE_PC__ */
 273:../../../os/common/ports/AVR/chcore.h **** 
 274:../../../os/common/ports/AVR/chcore.h **** /**
 275:../../../os/common/ports/AVR/chcore.h ****  * @brief   Computes the thread working area global size.
 276:../../../os/common/ports/AVR/chcore.h ****  * @note    There is no need to perform alignments in this macro.
 277:../../../os/common/ports/AVR/chcore.h ****  */
 278:../../../os/common/ports/AVR/chcore.h **** #define PORT_WA_SIZE(n) ((sizeof(struct port_intctx) - 1) +                \
 279:../../../os/common/ports/AVR/chcore.h ****                          (sizeof(struct port_extctx) - 1) +                \
 280:../../../os/common/ports/AVR/chcore.h ****                          ((size_t)(n)) + ((size_t)(PORT_INT_REQUIRED_STACK)))
 281:../../../os/common/ports/AVR/chcore.h **** 
 282:../../../os/common/ports/AVR/chcore.h **** /**
 283:../../../os/common/ports/AVR/chcore.h ****  * @brief   Static working area allocation.
 284:../../../os/common/ports/AVR/chcore.h ****  * @details This macro is used to allocate a static thread working area
 285:../../../os/common/ports/AVR/chcore.h ****  *          aligned as both position and size.
 286:../../../os/common/ports/AVR/chcore.h ****  *
 287:../../../os/common/ports/AVR/chcore.h ****  * @param[in] s         the name to be assigned to the stack array
 288:../../../os/common/ports/AVR/chcore.h ****  * @param[in] n         the stack size to be assigned to the thread
 289:../../../os/common/ports/AVR/chcore.h ****  */
 290:../../../os/common/ports/AVR/chcore.h **** #define PORT_WORKING_AREA(s, n)                                             \
 291:../../../os/common/ports/AVR/chcore.h ****   stkalign_t s[THD_WORKING_AREA_SIZE(n) / sizeof (stkalign_t)]
 292:../../../os/common/ports/AVR/chcore.h **** 
 293:../../../os/common/ports/AVR/chcore.h **** /**
 294:../../../os/common/ports/AVR/chcore.h ****  * @brief   Priority level verification macro.
 295:../../../os/common/ports/AVR/chcore.h ****  */
 296:../../../os/common/ports/AVR/chcore.h **** #define PORT_IRQ_IS_VALID_PRIORITY(n) false
 297:../../../os/common/ports/AVR/chcore.h **** 
 298:../../../os/common/ports/AVR/chcore.h **** /**
 299:../../../os/common/ports/AVR/chcore.h ****  * @brief   Priority level verification macro.
 300:../../../os/common/ports/AVR/chcore.h ****  */
 301:../../../os/common/ports/AVR/chcore.h **** #define PORT_IRQ_IS_VALID_KERNEL_PRIORITY(n) false
 302:../../../os/common/ports/AVR/chcore.h **** 
 303:../../../os/common/ports/AVR/chcore.h **** /**
 304:../../../os/common/ports/AVR/chcore.h ****  * @brief   IRQ prologue code.
 305:../../../os/common/ports/AVR/chcore.h ****  * @details This macro must be inserted at the start of all IRQ handlers
 306:../../../os/common/ports/AVR/chcore.h ****  *          enabled to invoke system APIs.
 307:../../../os/common/ports/AVR/chcore.h ****  * @note    This code tricks the compiler to save all the specified registers
 308:../../../os/common/ports/AVR/chcore.h ****  *          by "touching" them.
 309:../../../os/common/ports/AVR/chcore.h ****  */
 310:../../../os/common/ports/AVR/chcore.h **** #define PORT_IRQ_PROLOGUE() {                                               \
 311:../../../os/common/ports/AVR/chcore.h ****   asm ("" : : : "r18", "r19", "r20", "r21", "r22", "r23", "r24",            \
 312:../../../os/common/ports/AVR/chcore.h ****                 "r25", "r26", "r27", "r30", "r31");                         \
 313:../../../os/common/ports/AVR/chcore.h ****   __avr_in_isr = true;                                                      \
 314:../../../os/common/ports/AVR/chcore.h **** }
 315:../../../os/common/ports/AVR/chcore.h **** 
 316:../../../os/common/ports/AVR/chcore.h **** /**
 317:../../../os/common/ports/AVR/chcore.h ****  * @brief   IRQ epilogue code.
 318:../../../os/common/ports/AVR/chcore.h ****  * @details This macro must be inserted at the end of all IRQ handlers
 319:../../../os/common/ports/AVR/chcore.h ****  *          enabled to invoke system APIs.
 320:../../../os/common/ports/AVR/chcore.h ****  */
 321:../../../os/common/ports/AVR/chcore.h **** #define PORT_IRQ_EPILOGUE() {                                               \
 322:../../../os/common/ports/AVR/chcore.h ****   __avr_in_isr = false;                                                     \
 323:../../../os/common/ports/AVR/chcore.h ****   _dbg_check_lock();                                                        \
 324:../../../os/common/ports/AVR/chcore.h ****   if (chSchIsPreemptionRequired())                                          \
 325:../../../os/common/ports/AVR/chcore.h ****     chSchDoReschedule();                                                    \
 326:../../../os/common/ports/AVR/chcore.h ****   _dbg_check_unlock();                                                      \
 327:../../../os/common/ports/AVR/chcore.h **** }
 328:../../../os/common/ports/AVR/chcore.h **** 
 329:../../../os/common/ports/AVR/chcore.h **** /**
 330:../../../os/common/ports/AVR/chcore.h ****  * @brief   IRQ handler function declaration.
 331:../../../os/common/ports/AVR/chcore.h ****  * @note    @p id can be a function name or a vector number depending on the
 332:../../../os/common/ports/AVR/chcore.h ****  *          port implementation.
 333:../../../os/common/ports/AVR/chcore.h ****  */
 334:../../../os/common/ports/AVR/chcore.h **** #define PORT_IRQ_HANDLER(id) ISR(id)
 335:../../../os/common/ports/AVR/chcore.h **** 
 336:../../../os/common/ports/AVR/chcore.h **** /**
 337:../../../os/common/ports/AVR/chcore.h ****  * @brief   Fast IRQ handler function declaration.
 338:../../../os/common/ports/AVR/chcore.h ****  * @note    @p id can be a function name or a vector number depending on the
 339:../../../os/common/ports/AVR/chcore.h ****  *          port implementation.
 340:../../../os/common/ports/AVR/chcore.h ****  */
 341:../../../os/common/ports/AVR/chcore.h **** #define PORT_FAST_IRQ_HANDLER(id) ISR(id)
 342:../../../os/common/ports/AVR/chcore.h **** 
 343:../../../os/common/ports/AVR/chcore.h **** /**
 344:../../../os/common/ports/AVR/chcore.h ****  * @brief   Performs a context switch between two threads.
 345:../../../os/common/ports/AVR/chcore.h ****  * @details This is the most critical code in any port, this function
 346:../../../os/common/ports/AVR/chcore.h ****  *          is responsible for the context switch between 2 threads.
 347:../../../os/common/ports/AVR/chcore.h ****  * @note    The implementation of this code affects <b>directly</b> the context
 348:../../../os/common/ports/AVR/chcore.h ****  *          switch performance so optimize here as much as you can.
 349:../../../os/common/ports/AVR/chcore.h ****  *
 350:../../../os/common/ports/AVR/chcore.h ****  * @param[in] ntp       the thread to be switched in
 351:../../../os/common/ports/AVR/chcore.h ****  * @param[in] otp       the thread to be switched out
 352:../../../os/common/ports/AVR/chcore.h ****  */
 353:../../../os/common/ports/AVR/chcore.h **** #define port_switch(ntp, otp) {                                             \
 354:../../../os/common/ports/AVR/chcore.h ****   _port_switch(ntp, otp);                                                   \
 355:../../../os/common/ports/AVR/chcore.h ****   asm volatile ("" : : : "memory");                                         \
 356:../../../os/common/ports/AVR/chcore.h **** }
 357:../../../os/common/ports/AVR/chcore.h **** 
 358:../../../os/common/ports/AVR/chcore.h **** 
 359:../../../os/common/ports/AVR/chcore.h **** /**
 360:../../../os/common/ports/AVR/chcore.h ****  * @brief   Port-related initialization code.
 361:../../../os/common/ports/AVR/chcore.h ****  * @note    This function is empty in this port.
 362:../../../os/common/ports/AVR/chcore.h ****  */
 363:../../../os/common/ports/AVR/chcore.h **** #define port_init() {                                                       \
 364:../../../os/common/ports/AVR/chcore.h ****   __avr_in_isr = true;                                                      \
 365:../../../os/common/ports/AVR/chcore.h **** }
 366:../../../os/common/ports/AVR/chcore.h **** 
 367:../../../os/common/ports/AVR/chcore.h **** /*===========================================================================*/
 368:../../../os/common/ports/AVR/chcore.h **** /* External declarations.                                                    */
 369:../../../os/common/ports/AVR/chcore.h **** /*===========================================================================*/
 370:../../../os/common/ports/AVR/chcore.h **** 
 371:../../../os/common/ports/AVR/chcore.h **** /* The following code is not processed when the file is included from an
 372:../../../os/common/ports/AVR/chcore.h ****    asm module.*/
 373:../../../os/common/ports/AVR/chcore.h **** #if !defined(_FROM_ASM_)
 374:../../../os/common/ports/AVR/chcore.h **** 
 375:../../../os/common/ports/AVR/chcore.h **** #ifdef __cplusplus
 376:../../../os/common/ports/AVR/chcore.h **** extern "C" {
 377:../../../os/common/ports/AVR/chcore.h **** #endif
 378:../../../os/common/ports/AVR/chcore.h ****   void _port_switch(thread_t *ntp, thread_t *otp);
 379:../../../os/common/ports/AVR/chcore.h ****   void _port_thread_start(void);
 380:../../../os/common/ports/AVR/chcore.h **** #ifdef __cplusplus
 381:../../../os/common/ports/AVR/chcore.h **** }
 382:../../../os/common/ports/AVR/chcore.h **** #endif
 383:../../../os/common/ports/AVR/chcore.h **** 
 384:../../../os/common/ports/AVR/chcore.h **** #endif /* !defined(_FROM_ASM_) */
 385:../../../os/common/ports/AVR/chcore.h **** 
 386:../../../os/common/ports/AVR/chcore.h **** /*===========================================================================*/
 387:../../../os/common/ports/AVR/chcore.h **** /* Module inline functions.                                                  */
 388:../../../os/common/ports/AVR/chcore.h **** /*===========================================================================*/
 389:../../../os/common/ports/AVR/chcore.h **** 
 390:../../../os/common/ports/AVR/chcore.h **** /* The following code is not processed when the file is included from an
 391:../../../os/common/ports/AVR/chcore.h ****    asm module.*/
 392:../../../os/common/ports/AVR/chcore.h **** #if !defined(_FROM_ASM_)
 393:../../../os/common/ports/AVR/chcore.h **** 
 394:../../../os/common/ports/AVR/chcore.h **** /**
 395:../../../os/common/ports/AVR/chcore.h ****  * @brief   Returns a word encoding the current interrupts status.
 396:../../../os/common/ports/AVR/chcore.h ****  *
 397:../../../os/common/ports/AVR/chcore.h ****  * @return              The interrupts status.
 398:../../../os/common/ports/AVR/chcore.h ****  */
 399:../../../os/common/ports/AVR/chcore.h **** static inline syssts_t port_get_irq_status(void) {
 400:../../../os/common/ports/AVR/chcore.h **** 
 401:../../../os/common/ports/AVR/chcore.h ****   return SREG;
 402:../../../os/common/ports/AVR/chcore.h **** }
 403:../../../os/common/ports/AVR/chcore.h **** 
 404:../../../os/common/ports/AVR/chcore.h **** /**
 405:../../../os/common/ports/AVR/chcore.h ****  * @brief   Checks the interrupt status.
 406:../../../os/common/ports/AVR/chcore.h ****  *
 407:../../../os/common/ports/AVR/chcore.h ****  * @param[in] sts       the interrupt status word
 408:../../../os/common/ports/AVR/chcore.h ****  *
 409:../../../os/common/ports/AVR/chcore.h ****  * @return              The interrupt status.
 410:../../../os/common/ports/AVR/chcore.h ****  * @retval false        the word specified a disabled interrupts status.
 411:../../../os/common/ports/AVR/chcore.h ****  * @retval true         the word specified an enabled interrupts status.
 412:../../../os/common/ports/AVR/chcore.h ****  */
 413:../../../os/common/ports/AVR/chcore.h **** static inline bool port_irq_enabled(syssts_t sts) {
 414:../../../os/common/ports/AVR/chcore.h **** 
 415:../../../os/common/ports/AVR/chcore.h ****   return (bool)((sts & 0x80) != 0);
 416:../../../os/common/ports/AVR/chcore.h **** }
 417:../../../os/common/ports/AVR/chcore.h **** 
 418:../../../os/common/ports/AVR/chcore.h **** /**
 419:../../../os/common/ports/AVR/chcore.h ****  * @brief   Determines the current execution context.
 420:../../../os/common/ports/AVR/chcore.h ****  *
 421:../../../os/common/ports/AVR/chcore.h ****  * @return              The execution context.
 422:../../../os/common/ports/AVR/chcore.h ****  * @retval false        not running in ISR mode.
 423:../../../os/common/ports/AVR/chcore.h ****  * @retval true         running in ISR mode.
 424:../../../os/common/ports/AVR/chcore.h ****  */
 425:../../../os/common/ports/AVR/chcore.h **** static inline bool port_is_isr_context(void) {
 426:../../../os/common/ports/AVR/chcore.h **** 
 427:../../../os/common/ports/AVR/chcore.h ****   return __avr_in_isr;
 428:../../../os/common/ports/AVR/chcore.h **** }
 429:../../../os/common/ports/AVR/chcore.h **** 
 430:../../../os/common/ports/AVR/chcore.h **** /**
 431:../../../os/common/ports/AVR/chcore.h ****  * @brief   Kernel-lock action.
 432:../../../os/common/ports/AVR/chcore.h ****  * @details Usually this function just disables interrupts but may perform more
 433:../../../os/common/ports/AVR/chcore.h ****  *          actions.
 434:../../../os/common/ports/AVR/chcore.h ****  */
 435:../../../os/common/ports/AVR/chcore.h **** static inline void port_lock(void) {
 436:../../../os/common/ports/AVR/chcore.h **** 
 437:../../../os/common/ports/AVR/chcore.h ****   asm volatile ("cli" : : : "memory");
 438:../../../os/common/ports/AVR/chcore.h **** }
 439:../../../os/common/ports/AVR/chcore.h **** 
 440:../../../os/common/ports/AVR/chcore.h **** /**
 441:../../../os/common/ports/AVR/chcore.h ****  * @brief   Kernel-unlock action.
 442:../../../os/common/ports/AVR/chcore.h ****  * @details Usually this function just enables interrupts but may perform more
 443:../../../os/common/ports/AVR/chcore.h ****  *          actions.
 444:../../../os/common/ports/AVR/chcore.h ****  */
 445:../../../os/common/ports/AVR/chcore.h **** static inline void port_unlock(void) {
 446:../../../os/common/ports/AVR/chcore.h **** 
 447:../../../os/common/ports/AVR/chcore.h ****   asm volatile ("sei" : : : "memory");
 448:../../../os/common/ports/AVR/chcore.h **** }
 449:../../../os/common/ports/AVR/chcore.h **** 
 450:../../../os/common/ports/AVR/chcore.h **** /**
 451:../../../os/common/ports/AVR/chcore.h ****  * @brief   Kernel-lock action from an interrupt handler.
 452:../../../os/common/ports/AVR/chcore.h ****  * @details This function is invoked before invoking I-class APIs from
 453:../../../os/common/ports/AVR/chcore.h ****  *          interrupt handlers. The implementation is architecture dependent,
 454:../../../os/common/ports/AVR/chcore.h ****  *          in its simplest form it is void.
 455:../../../os/common/ports/AVR/chcore.h ****  * @note    This function is empty in this port.
 456:../../../os/common/ports/AVR/chcore.h ****  */
 457:../../../os/common/ports/AVR/chcore.h **** static inline void port_lock_from_isr(void) {
 458:../../../os/common/ports/AVR/chcore.h **** 
 459:../../../os/common/ports/AVR/chcore.h **** }
  97               		.loc 4 459 1 view .LVU12
 396:../../../os/rt/include/chsys.h ****   _stats_start_measure_crit_isr();
  98               		.loc 3 396 34 view .LVU13
 397:../../../os/rt/include/chsys.h ****   _dbg_check_lock_from_isr();
  99               		.loc 3 397 29 view .LVU14
 167:../../../os/hal/ports/AVR/MEGA/LLD/TIMv1/hal_st_lld.c ****   osalOsTimerHandlerI();
 100               		.loc 1 167 3 view .LVU15
 101               	.LBB16:
 102               	.LBI16:
 534:../../../os/hal/osal/rt/osal.h **** }
 535:../../../os/hal/osal/rt/osal.h **** 
 536:../../../os/hal/osal/rt/osal.h **** /**
 537:../../../os/hal/osal/rt/osal.h ****  * @brief   Leaves a critical zone from ISR context.
 538:../../../os/hal/osal/rt/osal.h ****  * @note    This function cannot be used for reentrant critical zones.
 539:../../../os/hal/osal/rt/osal.h ****  *
 540:../../../os/hal/osal/rt/osal.h ****  * @special
 541:../../../os/hal/osal/rt/osal.h ****  */
 542:../../../os/hal/osal/rt/osal.h **** static inline void osalSysUnlockFromISR(void) {
 543:../../../os/hal/osal/rt/osal.h **** 
 544:../../../os/hal/osal/rt/osal.h ****   chSysUnlockFromISR();
 545:../../../os/hal/osal/rt/osal.h **** }
 546:../../../os/hal/osal/rt/osal.h **** 
 547:../../../os/hal/osal/rt/osal.h **** /**
 548:../../../os/hal/osal/rt/osal.h ****  * @brief   Returns the execution status and enters a critical zone.
 549:../../../os/hal/osal/rt/osal.h ****  * @details This functions enters into a critical zone and can be called
 550:../../../os/hal/osal/rt/osal.h ****  *          from any context. Because its flexibility it is less efficient
 551:../../../os/hal/osal/rt/osal.h ****  *          than @p chSysLock() which is preferable when the calling context
 552:../../../os/hal/osal/rt/osal.h ****  *          is known.
 553:../../../os/hal/osal/rt/osal.h ****  * @post    The system is in a critical zone.
 554:../../../os/hal/osal/rt/osal.h ****  *
 555:../../../os/hal/osal/rt/osal.h ****  * @return              The previous system status, the encoding of this
 556:../../../os/hal/osal/rt/osal.h ****  *                      status word is architecture-dependent and opaque.
 557:../../../os/hal/osal/rt/osal.h ****  *
 558:../../../os/hal/osal/rt/osal.h ****  * @xclass
 559:../../../os/hal/osal/rt/osal.h ****  */
 560:../../../os/hal/osal/rt/osal.h **** static inline syssts_t osalSysGetStatusAndLockX(void) {
 561:../../../os/hal/osal/rt/osal.h **** 
 562:../../../os/hal/osal/rt/osal.h ****   return chSysGetStatusAndLockX();
 563:../../../os/hal/osal/rt/osal.h **** }
 564:../../../os/hal/osal/rt/osal.h **** 
 565:../../../os/hal/osal/rt/osal.h **** /**
 566:../../../os/hal/osal/rt/osal.h ****  * @brief   Restores the specified execution status and leaves a critical zone.
 567:../../../os/hal/osal/rt/osal.h ****  * @note    A call to @p chSchRescheduleS() is automatically performed
 568:../../../os/hal/osal/rt/osal.h ****  *          if exiting the critical zone and if not in ISR context.
 569:../../../os/hal/osal/rt/osal.h ****  *
 570:../../../os/hal/osal/rt/osal.h ****  * @param[in] sts       the system status to be restored.
 571:../../../os/hal/osal/rt/osal.h ****  *
 572:../../../os/hal/osal/rt/osal.h ****  * @xclass
 573:../../../os/hal/osal/rt/osal.h ****  */
 574:../../../os/hal/osal/rt/osal.h **** static inline void osalSysRestoreStatusX(syssts_t sts) {
 575:../../../os/hal/osal/rt/osal.h **** 
 576:../../../os/hal/osal/rt/osal.h ****   chSysRestoreStatusX(sts);
 577:../../../os/hal/osal/rt/osal.h **** }
 578:../../../os/hal/osal/rt/osal.h **** 
 579:../../../os/hal/osal/rt/osal.h **** /**
 580:../../../os/hal/osal/rt/osal.h ****  * @brief   Polled delay.
 581:../../../os/hal/osal/rt/osal.h ****  * @note    The real delay is always few cycles in excess of the specified
 582:../../../os/hal/osal/rt/osal.h ****  *          value.
 583:../../../os/hal/osal/rt/osal.h ****  *
 584:../../../os/hal/osal/rt/osal.h ****  * @param[in] cycles    number of cycles
 585:../../../os/hal/osal/rt/osal.h ****  *
 586:../../../os/hal/osal/rt/osal.h ****  * @xclass
 587:../../../os/hal/osal/rt/osal.h ****  */
 588:../../../os/hal/osal/rt/osal.h **** #if (PORT_SUPPORTS_RT == TRUE) || defined(__DOXYGEN__)
 589:../../../os/hal/osal/rt/osal.h **** static inline void osalSysPolledDelayX(rtcnt_t cycles) {
 590:../../../os/hal/osal/rt/osal.h **** 
 591:../../../os/hal/osal/rt/osal.h ****   chSysPolledDelayX(cycles);
 592:../../../os/hal/osal/rt/osal.h **** }
 593:../../../os/hal/osal/rt/osal.h **** #endif
 594:../../../os/hal/osal/rt/osal.h **** 
 595:../../../os/hal/osal/rt/osal.h **** /**
 596:../../../os/hal/osal/rt/osal.h ****  * @brief   Systick callback for the underlying OS.
 597:../../../os/hal/osal/rt/osal.h ****  * @note    This callback is only defined if the OSAL requires such a
 598:../../../os/hal/osal/rt/osal.h ****  *          service from the HAL.
 599:../../../os/hal/osal/rt/osal.h ****  */
 600:../../../os/hal/osal/rt/osal.h **** #if (OSAL_ST_MODE != OSAL_ST_MODE_NONE) || defined(__DOXYGEN__)
 601:../../../os/hal/osal/rt/osal.h **** static inline void osalOsTimerHandlerI(void) {
 103               		.loc 2 601 20 view .LVU16
 104               	.LBB17:
 602:../../../os/hal/osal/rt/osal.h **** 
 603:../../../os/hal/osal/rt/osal.h ****   chSysTimerHandlerI();
 105               		.loc 2 603 3 view .LVU17
 106 0028 0E94 0000 		call chSysTimerHandlerI
 107               	.LVL0:
 108               	.LBE17:
 109               	.LBE16:
 168:../../../os/hal/ports/AVR/MEGA/LLD/TIMv1/hal_st_lld.c ****   osalSysUnlockFromISR();
 110               		.loc 1 168 3 view .LVU18
 544:../../../os/hal/osal/rt/osal.h **** }
 111               		.loc 2 544 3 view .LVU19
 398:../../../os/rt/include/chsys.h **** }
 399:../../../os/rt/include/chsys.h **** 
 400:../../../os/rt/include/chsys.h **** /**
 401:../../../os/rt/include/chsys.h ****  * @brief   Leaves the kernel lock state from within an interrupt handler.
 402:../../../os/rt/include/chsys.h ****  *
 403:../../../os/rt/include/chsys.h ****  * @note    This API may do nothing on some architectures, it is required
 404:../../../os/rt/include/chsys.h ****  *          because on ports that support preemptable interrupt handlers
 405:../../../os/rt/include/chsys.h ****  *          it is required to raise the interrupt mask to the same level of
 406:../../../os/rt/include/chsys.h ****  *          the system mutual exclusion zone.<br>
 407:../../../os/rt/include/chsys.h ****  *          It is good practice to invoke this API after invoking any I-class
 408:../../../os/rt/include/chsys.h ****  *          syscall from an interrupt handler.
 409:../../../os/rt/include/chsys.h ****  * @note    This API must be invoked exclusively from interrupt handlers.
 410:../../../os/rt/include/chsys.h ****  *
 411:../../../os/rt/include/chsys.h ****  * @special
 412:../../../os/rt/include/chsys.h ****  */
 413:../../../os/rt/include/chsys.h **** static inline void chSysUnlockFromISR(void) {
 414:../../../os/rt/include/chsys.h **** 
 415:../../../os/rt/include/chsys.h ****   _dbg_check_unlock_from_isr();
 112               		.loc 3 415 31 view .LVU20
 416:../../../os/rt/include/chsys.h ****   _stats_stop_measure_crit_isr();
 113               		.loc 3 416 33 view .LVU21
 417:../../../os/rt/include/chsys.h ****   port_unlock_from_isr();
 114               		.loc 3 417 3 view .LVU22
 460:../../../os/common/ports/AVR/chcore.h **** 
 461:../../../os/common/ports/AVR/chcore.h **** /**
 462:../../../os/common/ports/AVR/chcore.h ****  * @brief   Kernel-unlock action from an interrupt handler.
 463:../../../os/common/ports/AVR/chcore.h ****  * @details This function is invoked after invoking I-class APIs from interrupt
 464:../../../os/common/ports/AVR/chcore.h ****  *          handlers. The implementation is architecture dependent, in its
 465:../../../os/common/ports/AVR/chcore.h ****  *          simplest form it is void.
 466:../../../os/common/ports/AVR/chcore.h ****  * @note    This function is empty in this port.
 467:../../../os/common/ports/AVR/chcore.h ****  */
 468:../../../os/common/ports/AVR/chcore.h **** static inline void port_unlock_from_isr(void) {
 469:../../../os/common/ports/AVR/chcore.h **** 
 470:../../../os/common/ports/AVR/chcore.h **** }
 115               		.loc 4 470 1 view .LVU23
 169:../../../os/hal/ports/AVR/MEGA/LLD/TIMv1/hal_st_lld.c **** 
 170:../../../os/hal/ports/AVR/MEGA/LLD/TIMv1/hal_st_lld.c ****   OSAL_IRQ_EPILOGUE();
 116               		.loc 1 170 3 view .LVU24
 117               		.loc 1 170 3 view .LVU25
 118               		.loc 1 170 3 view .LVU26
 119               		.loc 1 170 3 view .LVU27
 120               		.loc 1 170 3 view .LVU28
 121 002c 1092 0000 		sts __avr_in_isr,__zero_reg__
 122               		.loc 1 170 3 view .LVU29
 123               		.loc 1 170 3 view .LVU30
 124 0030 0E94 0000 		call chSchIsPreemptionRequired
 125               	.LVL1:
 126 0034 8111      		cpse r24,__zero_reg__
 127 0036 00C0      		rjmp .L7
 128               	.L1:
 129               	/* epilogue start */
 171:../../../os/hal/ports/AVR/MEGA/LLD/TIMv1/hal_st_lld.c **** }
 130               		.loc 1 171 1 is_stmt 0 view .LVU31
 131 0038 FF91      		pop r31
 132 003a EF91      		pop r30
 133 003c BF91      		pop r27
 134 003e AF91      		pop r26
 135 0040 9F91      		pop r25
 136 0042 8F91      		pop r24
 137 0044 7F91      		pop r23
 138 0046 6F91      		pop r22
 139 0048 5F91      		pop r21
 140 004a 4F91      		pop r20
 141 004c 3F91      		pop r19
 142 004e 2F91      		pop r18
 143 0050 0F90      		pop r0
 144 0052 0FBE      		out __SREG__,r0
 145 0054 0F90      		pop r0
 146 0056 1F90      		pop r1
 147 0058 1895      		reti
 148               	.L7:
 170:../../../os/hal/ports/AVR/MEGA/LLD/TIMv1/hal_st_lld.c **** }
 149               		.loc 1 170 3 is_stmt 1 discriminator 1 view .LVU32
 150 005a 0E94 0000 		call chSchDoReschedule
 151               	.LVL2:
 170:../../../os/hal/ports/AVR/MEGA/LLD/TIMv1/hal_st_lld.c **** }
 152               		.loc 1 170 3 discriminator 1 view .LVU33
 170:../../../os/hal/ports/AVR/MEGA/LLD/TIMv1/hal_st_lld.c **** }
 153               		.loc 1 170 22 discriminator 1 view .LVU34
 154               		.loc 1 171 1 is_stmt 0 discriminator 1 view .LVU35
 155 005e 00C0      		rjmp .L1
 156               		.cfi_endproc
 157               	.LFE173:
 159               		.section	.text.st_lld_init,"ax",@progbits
 160               	.global	st_lld_init
 162               	st_lld_init:
 163               	.LFB174:
 172:../../../os/hal/ports/AVR/MEGA/LLD/TIMv1/hal_st_lld.c **** 
 173:../../../os/hal/ports/AVR/MEGA/LLD/TIMv1/hal_st_lld.c **** #endif /* OSAL_ST_MODE == OSAL_ST_MODE_FREERUNNING */
 174:../../../os/hal/ports/AVR/MEGA/LLD/TIMv1/hal_st_lld.c **** 
 175:../../../os/hal/ports/AVR/MEGA/LLD/TIMv1/hal_st_lld.c **** /*==========================================================================*/
 176:../../../os/hal/ports/AVR/MEGA/LLD/TIMv1/hal_st_lld.c **** /* Driver exported functions.                                               */
 177:../../../os/hal/ports/AVR/MEGA/LLD/TIMv1/hal_st_lld.c **** /*==========================================================================*/
 178:../../../os/hal/ports/AVR/MEGA/LLD/TIMv1/hal_st_lld.c **** 
 179:../../../os/hal/ports/AVR/MEGA/LLD/TIMv1/hal_st_lld.c **** /**
 180:../../../os/hal/ports/AVR/MEGA/LLD/TIMv1/hal_st_lld.c ****  * @brief   Low level ST driver initialization.
 181:../../../os/hal/ports/AVR/MEGA/LLD/TIMv1/hal_st_lld.c ****  *
 182:../../../os/hal/ports/AVR/MEGA/LLD/TIMv1/hal_st_lld.c ****  * @notapi
 183:../../../os/hal/ports/AVR/MEGA/LLD/TIMv1/hal_st_lld.c ****  */
 184:../../../os/hal/ports/AVR/MEGA/LLD/TIMv1/hal_st_lld.c **** void st_lld_init(void) {
 164               		.loc 1 184 24 is_stmt 1 view -0
 165               		.cfi_startproc
 166               	/* prologue: function */
 167               	/* frame size = 0 */
 168               	/* stack size = 0 */
 169               	.L__stack_usage = 0
 185:../../../os/hal/ports/AVR/MEGA/LLD/TIMv1/hal_st_lld.c **** 
 186:../../../os/hal/ports/AVR/MEGA/LLD/TIMv1/hal_st_lld.c **** #if (OSAL_ST_MODE == OSAL_ST_MODE_FREERUNNING) || defined(__DOXYGEN__)
 187:../../../os/hal/ports/AVR/MEGA/LLD/TIMv1/hal_st_lld.c **** 
 188:../../../os/hal/ports/AVR/MEGA/LLD/TIMv1/hal_st_lld.c ****   /*
 189:../../../os/hal/ports/AVR/MEGA/LLD/TIMv1/hal_st_lld.c ****    * Periodic mode uses Timer 1 (16 bit).
 190:../../../os/hal/ports/AVR/MEGA/LLD/TIMv1/hal_st_lld.c ****    */
 191:../../../os/hal/ports/AVR/MEGA/LLD/TIMv1/hal_st_lld.c **** 
 192:../../../os/hal/ports/AVR/MEGA/LLD/TIMv1/hal_st_lld.c ****   /* CTC mode, no clock source. */
 193:../../../os/hal/ports/AVR/MEGA/LLD/TIMv1/hal_st_lld.c ****   TCCR1A     = 0;
 170               		.loc 1 193 3 view .LVU37
 171               		.loc 1 193 14 is_stmt 0 view .LVU38
 172 0000 1092 8000 		sts 128,__zero_reg__
 194:../../../os/hal/ports/AVR/MEGA/LLD/TIMv1/hal_st_lld.c ****   TCCR1B     = _BV(WGM12);
 173               		.loc 1 194 3 is_stmt 1 view .LVU39
 174               		.loc 1 194 14 is_stmt 0 view .LVU40
 175 0004 E1E8      		ldi r30,lo8(-127)
 176 0006 F0E0      		ldi r31,0
 177 0008 88E0      		ldi r24,lo8(8)
 178 000a 8083      		st Z,r24
 195:../../../os/hal/ports/AVR/MEGA/LLD/TIMv1/hal_st_lld.c **** 
 196:../../../os/hal/ports/AVR/MEGA/LLD/TIMv1/hal_st_lld.c ****   /* start disabled. */
 197:../../../os/hal/ports/AVR/MEGA/LLD/TIMv1/hal_st_lld.c ****   TCCR1C     = 0;
 179               		.loc 1 197 3 is_stmt 1 view .LVU41
 180               		.loc 1 197 14 is_stmt 0 view .LVU42
 181 000c 1092 8200 		sts 130,__zero_reg__
 198:../../../os/hal/ports/AVR/MEGA/LLD/TIMv1/hal_st_lld.c ****   OCR1A      = 0;
 182               		.loc 1 198 3 is_stmt 1 view .LVU43
 183               		.loc 1 198 14 is_stmt 0 view .LVU44
 184 0010 1092 8900 		sts 136+1,__zero_reg__
 185 0014 1092 8800 		sts 136,__zero_reg__
 199:../../../os/hal/ports/AVR/MEGA/LLD/TIMv1/hal_st_lld.c ****   TCNT1      = 0;
 186               		.loc 1 199 3 is_stmt 1 view .LVU45
 187               		.loc 1 199 14 is_stmt 0 view .LVU46
 188 0018 1092 8500 		sts 132+1,__zero_reg__
 189 001c 1092 8400 		sts 132,__zero_reg__
 200:../../../os/hal/ports/AVR/MEGA/LLD/TIMv1/hal_st_lld.c ****   TIFR_REG   = _BV(OCF1A);                              /* Reset pending.   */    
 190               		.loc 1 200 3 is_stmt 1 view .LVU47
 191               		.loc 1 200 14 is_stmt 0 view .LVU48
 192 0020 82E0      		ldi r24,lo8(2)
 193 0022 86BB      		out 0x16,r24
 201:../../../os/hal/ports/AVR/MEGA/LLD/TIMv1/hal_st_lld.c ****   TIMSK_REG  = 0;
 194               		.loc 1 201 3 is_stmt 1 view .LVU49
 195               		.loc 1 201 14 is_stmt 0 view .LVU50
 196 0024 1092 6F00 		sts 111,__zero_reg__
 202:../../../os/hal/ports/AVR/MEGA/LLD/TIMv1/hal_st_lld.c ****   TCCR1B     = PRESCALER;
 197               		.loc 1 202 3 is_stmt 1 view .LVU51
 198               		.loc 1 202 14 is_stmt 0 view .LVU52
 199 0028 85E0      		ldi r24,lo8(5)
 200 002a 8083      		st Z,r24
 201               	/* epilogue start */
 203:../../../os/hal/ports/AVR/MEGA/LLD/TIMv1/hal_st_lld.c **** 
 204:../../../os/hal/ports/AVR/MEGA/LLD/TIMv1/hal_st_lld.c **** #endif /* OSAL_ST_MODE == OSAL_ST_MODE_FREERUNNING */
 205:../../../os/hal/ports/AVR/MEGA/LLD/TIMv1/hal_st_lld.c **** 
 206:../../../os/hal/ports/AVR/MEGA/LLD/TIMv1/hal_st_lld.c **** #if (OSAL_ST_MODE == OSAL_ST_MODE_PERIODIC) || defined(__DOXYGEN__)
 207:../../../os/hal/ports/AVR/MEGA/LLD/TIMv1/hal_st_lld.c **** 
 208:../../../os/hal/ports/AVR/MEGA/LLD/TIMv1/hal_st_lld.c ****   /*
 209:../../../os/hal/ports/AVR/MEGA/LLD/TIMv1/hal_st_lld.c ****    * Periodic mode uses Timer 0 (8 bit).
 210:../../../os/hal/ports/AVR/MEGA/LLD/TIMv1/hal_st_lld.c ****    */
 211:../../../os/hal/ports/AVR/MEGA/LLD/TIMv1/hal_st_lld.c **** #if defined(TCCR0B) /* Timer has multiple output comparators.               */
 212:../../../os/hal/ports/AVR/MEGA/LLD/TIMv1/hal_st_lld.c ****   TCCR0A  = (1 << WGM01) | (0 << WGM00) |                /* CTC mode.       */
 213:../../../os/hal/ports/AVR/MEGA/LLD/TIMv1/hal_st_lld.c ****             (0 << COM0A1) | (0 << COM0A0) |              /* OC0A disabled.  */
 214:../../../os/hal/ports/AVR/MEGA/LLD/TIMv1/hal_st_lld.c ****             (0 << COM0B1) | (0 << COM0B0);               /* OC0B disabled.  */
 215:../../../os/hal/ports/AVR/MEGA/LLD/TIMv1/hal_st_lld.c ****   TCCR0B  = (0 << WGM02) | AVR_TIMER_PRESCALER_BITS;     /* CTC mode.       */
 216:../../../os/hal/ports/AVR/MEGA/LLD/TIMv1/hal_st_lld.c ****   OCR0A   = AVR_TIMER_COUNTER - 1;
 217:../../../os/hal/ports/AVR/MEGA/LLD/TIMv1/hal_st_lld.c ****   TCNT0   = 0;                                           /* Reset counter.  */
 218:../../../os/hal/ports/AVR/MEGA/LLD/TIMv1/hal_st_lld.c ****   TIFR0   = (1 << OCF0A);                                /* Reset pending.  */
 219:../../../os/hal/ports/AVR/MEGA/LLD/TIMv1/hal_st_lld.c ****   TIMSK0  = (1 << OCIE0A);                               /* IRQ on compare. */
 220:../../../os/hal/ports/AVR/MEGA/LLD/TIMv1/hal_st_lld.c **** 
 221:../../../os/hal/ports/AVR/MEGA/LLD/TIMv1/hal_st_lld.c **** #elif defined(TCCR0A) /* AT90CAN doesn't have TCCR0B and slightly different */
 222:../../../os/hal/ports/AVR/MEGA/LLD/TIMv1/hal_st_lld.c ****                       /* TCCR0A.                                            */
 223:../../../os/hal/ports/AVR/MEGA/LLD/TIMv1/hal_st_lld.c ****   TCCR0A  = (1 << WGM01) | (0 << WGM00) |                /* CTC mode.       */
 224:../../../os/hal/ports/AVR/MEGA/LLD/TIMv1/hal_st_lld.c ****             (0 << COM0A1) | (0 << COM0A0);               /* OC0A disabled.  */
 225:../../../os/hal/ports/AVR/MEGA/LLD/TIMv1/hal_st_lld.c ****   OCR0A   = AVR_TIMER_COUNTER - 1;
 226:../../../os/hal/ports/AVR/MEGA/LLD/TIMv1/hal_st_lld.c ****   TCNT0   = 0;                                           /* Reset counter.  */
 227:../../../os/hal/ports/AVR/MEGA/LLD/TIMv1/hal_st_lld.c ****   TIFR0   = (1 << OCF0A);                                /* Reset pending.  */
 228:../../../os/hal/ports/AVR/MEGA/LLD/TIMv1/hal_st_lld.c ****   TIMSK0  = (1 << OCIE0A);                               /* IRQ on compare. */
 229:../../../os/hal/ports/AVR/MEGA/LLD/TIMv1/hal_st_lld.c **** 
 230:../../../os/hal/ports/AVR/MEGA/LLD/TIMv1/hal_st_lld.c **** #elif defined(TCCR0) /* Timer has single output comparator                  */
 231:../../../os/hal/ports/AVR/MEGA/LLD/TIMv1/hal_st_lld.c ****   TCCR0   = (1 << WGM01) | (0 << WGM00) |                /* CTC mode.       */
 232:../../../os/hal/ports/AVR/MEGA/LLD/TIMv1/hal_st_lld.c ****             (0 << COM01) | (0 << COM00) |                /* OC0A disabled.  */
 233:../../../os/hal/ports/AVR/MEGA/LLD/TIMv1/hal_st_lld.c ****             AVR_TIMER_PRESCALER_BITS;
 234:../../../os/hal/ports/AVR/MEGA/LLD/TIMv1/hal_st_lld.c ****   OCR0    = AVR_TIMER_COUNTER - 1;
 235:../../../os/hal/ports/AVR/MEGA/LLD/TIMv1/hal_st_lld.c ****   TCNT0   = 0;                                           /* Reset counter.  */
 236:../../../os/hal/ports/AVR/MEGA/LLD/TIMv1/hal_st_lld.c ****   TIFR    = (1 << OCF0);                                 /* Reset pending.  */
 237:../../../os/hal/ports/AVR/MEGA/LLD/TIMv1/hal_st_lld.c ****   TIMSK   = (1 << OCIE0);                                /* IRQ on compare. */
 238:../../../os/hal/ports/AVR/MEGA/LLD/TIMv1/hal_st_lld.c **** #else
 239:../../../os/hal/ports/AVR/MEGA/LLD/TIMv1/hal_st_lld.c ****   #error "Neither TCCR0A nor TCCR0 registers are defined"
 240:../../../os/hal/ports/AVR/MEGA/LLD/TIMv1/hal_st_lld.c **** #endif
 241:../../../os/hal/ports/AVR/MEGA/LLD/TIMv1/hal_st_lld.c **** 
 242:../../../os/hal/ports/AVR/MEGA/LLD/TIMv1/hal_st_lld.c **** #endif /* OSAL_ST_MODE == OSAL_ST_MODE_PERIODIC */
 243:../../../os/hal/ports/AVR/MEGA/LLD/TIMv1/hal_st_lld.c **** }
 202               		.loc 1 243 1 view .LVU53
 203 002c 0895      		ret
 204               		.cfi_endproc
 205               	.LFE174:
 207               		.text
 208               	.Letext0:
 209               		.file 5 "/usr/local/Cellar/avr-gcc/8.2.0/lib/avr-gcc/8/gcc/avr/8.2.0/include/stddef.h"
 210               		.file 6 "/usr/local/Cellar/avr-gcc/8.2.0/avr/include/stdint.h"
 211               		.file 7 "../../../os/common/ports/AVR/compilers/GCC/chtypes.h"
 212               		.file 8 "../../../os/rt/include/chsystypes.h"
 213               		.file 9 "../../../os/rt/include/chschd.h"
 214               		.file 10 "../../../os/rt/include/chtime.h"
 215               		.file 11 "../../../os/rt/include/chsem.h"
 216               		.file 12 "../../../os/rt/include/chmtx.h"
 217               		.file 13 "../../../os/rt/include/chregistry.h"
 218               		.file 14 "../../../os/rt/include/chevents.h"
 219               		.file 15 "../../../os/common/oslib/include/chmemcore.h"
 220               		.file 16 "../../../os/hal/include/hal_queues.h"
 221               		.file 17 "../../../os/hal/include/hal_pal.h"
 222               		.file 18 "../../../os/hal/ports/AVR/MEGA/LLD/GPIOv1/hal_pal_lld.h"
 223               		.file 19 "../../../os/hal/include/hal_adc.h"
 224               		.file 20 "../../../os/hal/ports/AVR/MEGA/LLD/ADCv1/hal_adc_lld.h"
 225               		.file 21 "../../../os/hal/include/hal_serial.h"
 226               		.file 22 "../../../os/hal/ports/AVR/MEGA/LLD/USARTv1/hal_serial_lld.h"